
main_screen.elf:     file format elf32-littlearm


Disassembly of section .text:

00000000 <FillRect(API*, Rect const&, Rect, unsigned long)>:
       0:	b082      	sub	sp, #8
       2:	e92d 41f0 	stmdb	sp!, {r4, r5, r6, r7, r8, lr}
       6:	680c      	ldr	r4, [r1, #0]
       8:	ae06      	add	r6, sp, #24
       a:	4615      	mov	r5, r2
       c:	42a2      	cmp	r2, r4
       e:	e886 000c 	stmia.w	r6, {r2, r3}
      12:	da07      	bge.n	24 <FillRect(API*, Rect const&, Rect, unsigned long)+0x24>
      14:	1aa5      	subs	r5, r4, r2
      16:	9b08      	ldr	r3, [sp, #32]
      18:	9406      	str	r4, [sp, #24]
      1a:	1b5b      	subs	r3, r3, r5
      1c:	4625      	mov	r5, r4
      1e:	bf48      	it	mi
      20:	2300      	movmi	r3, #0
      22:	9308      	str	r3, [sp, #32]
      24:	f8d1 c008 	ldr.w	ip, [r1, #8]
      28:	4464      	add	r4, ip
      2a:	42ac      	cmp	r4, r5
      2c:	dd38      	ble.n	a0 <FillRect(API*, Rect const&, Rect, unsigned long)+0xa0>
      2e:	9e08      	ldr	r6, [sp, #32]
      30:	eb05 0e06 	add.w	lr, r5, r6
      34:	9a07      	ldr	r2, [sp, #28]
      36:	684b      	ldr	r3, [r1, #4]
      38:	429a      	cmp	r2, r3
      3a:	da07      	bge.n	4c <FillRect(API*, Rect const&, Rect, unsigned long)+0x4c>
      3c:	9f09      	ldr	r7, [sp, #36]	; 0x24
      3e:	1a9a      	subs	r2, r3, r2
      40:	9307      	str	r3, [sp, #28]
      42:	1aba      	subs	r2, r7, r2
      44:	bf48      	it	mi
      46:	2200      	movmi	r2, #0
      48:	9209      	str	r2, [sp, #36]	; 0x24
      4a:	461a      	mov	r2, r3
      4c:	68c9      	ldr	r1, [r1, #12]
      4e:	440b      	add	r3, r1
      50:	4293      	cmp	r3, r2
      52:	dc19      	bgt.n	88 <FillRect(API*, Rect const&, Rect, unsigned long)+0x88>
      54:	2700      	movs	r7, #0
      56:	4574      	cmp	r4, lr
      58:	9307      	str	r3, [sp, #28]
      5a:	9709      	str	r7, [sp, #36]	; 0x24
      5c:	da10      	bge.n	80 <FillRect(API*, Rect const&, Rect, unsigned long)+0x80>
      5e:	ebac 0605 	sub.w	r6, ip, r5
      62:	4698      	mov	r8, r3
      64:	461a      	mov	r2, r3
      66:	9608      	str	r6, [sp, #32]
      68:	4543      	cmp	r3, r8
      6a:	da16      	bge.n	9a <FillRect(API*, Rect const&, Rect, unsigned long)+0x9a>
      6c:	1a8a      	subs	r2, r1, r2
      6e:	fb06 f602 	mul.w	r6, r6, r2
      72:	9209      	str	r2, [sp, #36]	; 0x24
      74:	b126      	cbz	r6, 80 <FillRect(API*, Rect const&, Rect, unsigned long)+0x80>
      76:	6803      	ldr	r3, [r0, #0]
      78:	a906      	add	r1, sp, #24
      7a:	9a0a      	ldr	r2, [sp, #40]	; 0x28
      7c:	6fdb      	ldr	r3, [r3, #124]	; 0x7c
      7e:	4798      	blx	r3
      80:	e8bd 41f0 	ldmia.w	sp!, {r4, r5, r6, r7, r8, lr}
      84:	b002      	add	sp, #8
      86:	4770      	bx	lr
      88:	9f09      	ldr	r7, [sp, #36]	; 0x24
      8a:	4574      	cmp	r4, lr
      8c:	eb02 0807 	add.w	r8, r2, r7
      90:	daea      	bge.n	68 <FillRect(API*, Rect const&, Rect, unsigned long)+0x68>
      92:	ebac 0605 	sub.w	r6, ip, r5
      96:	9608      	str	r6, [sp, #32]
      98:	e7e6      	b.n	68 <FillRect(API*, Rect const&, Rect, unsigned long)+0x68>
      9a:	fb07 f606 	mul.w	r6, r7, r6
      9e:	e7e9      	b.n	74 <FillRect(API*, Rect const&, Rect, unsigned long)+0x74>
      a0:	2300      	movs	r3, #0
      a2:	46a6      	mov	lr, r4
      a4:	4625      	mov	r5, r4
      a6:	9406      	str	r4, [sp, #24]
      a8:	461e      	mov	r6, r3
      aa:	9308      	str	r3, [sp, #32]
      ac:	e7c2      	b.n	34 <FillRect(API*, Rect const&, Rect, unsigned long)+0x34>
      ae:	bf00      	nop

000000b0 <DrawIcon(API*, Rect const&, IconsManager const&, GameDesc const&)>:
      b0:	e92d 4ff0 	stmdb	sp!, {r4, r5, r6, r7, r8, r9, sl, fp, lr}
      b4:	4694      	mov	ip, r2
      b6:	680c      	ldr	r4, [r1, #0]
      b8:	b085      	sub	sp, #20
      ba:	461d      	mov	r5, r3
      bc:	4607      	mov	r7, r0
      be:	468e      	mov	lr, r1
      c0:	466e      	mov	r6, sp
      c2:	cb0f      	ldmia	r3, {r0, r1, r2, r3}
      c4:	42a0      	cmp	r0, r4
      c6:	e886 000f 	stmia.w	r6, {r0, r1, r2, r3}
      ca:	da06      	bge.n	da <DrawIcon(API*, Rect const&, IconsManager const&, GameDesc const&)+0x2a>
      cc:	1a20      	subs	r0, r4, r0
      ce:	9400      	str	r4, [sp, #0]
      d0:	1a13      	subs	r3, r2, r0
      d2:	4620      	mov	r0, r4
      d4:	bf48      	it	mi
      d6:	2300      	movmi	r3, #0
      d8:	9302      	str	r3, [sp, #8]
      da:	f8de 9008 	ldr.w	r9, [lr, #8]
      de:	444c      	add	r4, r9
      e0:	4284      	cmp	r4, r0
      e2:	dd51      	ble.n	188 <DrawIcon(API*, Rect const&, IconsManager const&, GameDesc const&)+0xd8>
      e4:	f8dd 8008 	ldr.w	r8, [sp, #8]
      e8:	eb00 0a08 	add.w	sl, r0, r8
      ec:	9a01      	ldr	r2, [sp, #4]
      ee:	f8de 3004 	ldr.w	r3, [lr, #4]
      f2:	429a      	cmp	r2, r3
      f4:	da06      	bge.n	104 <DrawIcon(API*, Rect const&, IconsManager const&, GameDesc const&)+0x54>
      f6:	1a9a      	subs	r2, r3, r2
      f8:	9903      	ldr	r1, [sp, #12]
      fa:	1a89      	subs	r1, r1, r2
      fc:	d441      	bmi.n	182 <DrawIcon(API*, Rect const&, IconsManager const&, GameDesc const&)+0xd2>
      fe:	9103      	str	r1, [sp, #12]
     100:	461a      	mov	r2, r3
     102:	9301      	str	r3, [sp, #4]
     104:	f8de e00c 	ldr.w	lr, [lr, #12]
     108:	eb03 010e 	add.w	r1, r3, lr
     10c:	4291      	cmp	r1, r2
     10e:	dc2b      	bgt.n	168 <DrawIcon(API*, Rect const&, IconsManager const&, GameDesc const&)+0xb8>
     110:	2300      	movs	r3, #0
     112:	4554      	cmp	r4, sl
     114:	9101      	str	r1, [sp, #4]
     116:	9303      	str	r3, [sp, #12]
     118:	da23      	bge.n	162 <DrawIcon(API*, Rect const&, IconsManager const&, GameDesc const&)+0xb2>
     11a:	eba9 0800 	sub.w	r8, r9, r0
     11e:	468b      	mov	fp, r1
     120:	460a      	mov	r2, r1
     122:	f8cd 8008 	str.w	r8, [sp, #8]
     126:	4559      	cmp	r1, fp
     128:	da28      	bge.n	17c <DrawIcon(API*, Rect const&, IconsManager const&, GameDesc const&)+0xcc>
     12a:	ebae 0202 	sub.w	r2, lr, r2
     12e:	fb08 f302 	mul.w	r3, r8, r2
     132:	9203      	str	r2, [sp, #12]
     134:	b1ab      	cbz	r3, 162 <DrawIcon(API*, Rect const&, IconsManager const&, GameDesc const&)+0xb2>
     136:	f895 3040 	ldrb.w	r3, [r5, #64]	; 0x40
     13a:	f8dc 202c 	ldr.w	r2, [ip, #44]	; 0x2c
     13e:	2b02      	cmp	r3, #2
     140:	682b      	ldr	r3, [r5, #0]
     142:	bf08      	it	eq
     144:	6baa      	ldreq	r2, [r5, #56]	; 0x38
     146:	2b00      	cmp	r3, #0
     148:	da03      	bge.n	152 <DrawIcon(API*, Rect const&, IconsManager const&, GameDesc const&)+0xa2>
     14a:	ebc3 7383 	rsb	r3, r3, r3, lsl #30
     14e:	eb02 0283 	add.w	r2, r2, r3, lsl #2
     152:	683b      	ldr	r3, [r7, #0]
     154:	4638      	mov	r0, r7
     156:	4631      	mov	r1, r6
     158:	f8d3 4084 	ldr.w	r4, [r3, #132]	; 0x84
     15c:	f44f 732c 	mov.w	r3, #688	; 0x2b0
     160:	47a0      	blx	r4
     162:	b005      	add	sp, #20
     164:	e8bd 8ff0 	ldmia.w	sp!, {r4, r5, r6, r7, r8, r9, sl, fp, pc}
     168:	9b03      	ldr	r3, [sp, #12]
     16a:	4554      	cmp	r4, sl
     16c:	eb02 0b03 	add.w	fp, r2, r3
     170:	dad9      	bge.n	126 <DrawIcon(API*, Rect const&, IconsManager const&, GameDesc const&)+0x76>
     172:	eba9 0800 	sub.w	r8, r9, r0
     176:	f8cd 8008 	str.w	r8, [sp, #8]
     17a:	e7d4      	b.n	126 <DrawIcon(API*, Rect const&, IconsManager const&, GameDesc const&)+0x76>
     17c:	fb03 f308 	mul.w	r3, r3, r8
     180:	e7d8      	b.n	134 <DrawIcon(API*, Rect const&, IconsManager const&, GameDesc const&)+0x84>
     182:	2200      	movs	r2, #0
     184:	9203      	str	r2, [sp, #12]
     186:	e7bb      	b.n	100 <DrawIcon(API*, Rect const&, IconsManager const&, GameDesc const&)+0x50>
     188:	2300      	movs	r3, #0
     18a:	46a2      	mov	sl, r4
     18c:	4620      	mov	r0, r4
     18e:	9400      	str	r4, [sp, #0]
     190:	4698      	mov	r8, r3
     192:	9302      	str	r3, [sp, #8]
     194:	e7aa      	b.n	ec <DrawIcon(API*, Rect const&, IconsManager const&, GameDesc const&)+0x3c>
     196:	bf00      	nop

00000198 <RequestRegistration(API*, char const*, char const*)>:
     198:	6803      	ldr	r3, [r0, #0]
     19a:	b5f0      	push	{r4, r5, r6, r7, lr}
     19c:	699b      	ldr	r3, [r3, #24]
     19e:	b085      	sub	sp, #20
     1a0:	4604      	mov	r4, r0
     1a2:	460e      	mov	r6, r1
     1a4:	4617      	mov	r7, r2
     1a6:	4798      	blx	r3
     1a8:	4605      	mov	r5, r0
     1aa:	b1b8      	cbz	r0, 1dc <RequestRegistration(API*, char const*, char const*)+0x44>
     1ac:	4629      	mov	r1, r5
     1ae:	2000      	movs	r0, #0
     1b0:	2250      	movs	r2, #80	; 0x50
     1b2:	4b10      	ldr	r3, [pc, #64]	; (1f4 <RequestRegistration(API*, char const*, char const*)+0x5c>)
     1b4:	f801 0b01 	strb.w	r0, [r1], #1
     1b8:	4620      	mov	r0, r4
     1ba:	f8d4 c000 	ldr.w	ip, [r4]
     1be:	447b      	add	r3, pc
     1c0:	9702      	str	r7, [sp, #8]
     1c2:	e9cd 2600 	strd	r2, r6, [sp]
     1c6:	4a0c      	ldr	r2, [pc, #48]	; (1f8 <RequestRegistration(API*, char const*, char const*)+0x60>)
     1c8:	f8dc 60b4 	ldr.w	r6, [ip, #180]	; 0xb4
     1cc:	447a      	add	r2, pc
     1ce:	47b0      	blx	r6
     1d0:	6823      	ldr	r3, [r4, #0]
     1d2:	4629      	mov	r1, r5
     1d4:	4620      	mov	r0, r4
     1d6:	69db      	ldr	r3, [r3, #28]
     1d8:	4798      	blx	r3
     1da:	b110      	cbz	r0, 1e2 <RequestRegistration(API*, char const*, char const*)+0x4a>
     1dc:	4628      	mov	r0, r5
     1de:	b005      	add	sp, #20
     1e0:	bdf0      	pop	{r4, r5, r6, r7, pc}
     1e2:	6823      	ldr	r3, [r4, #0]
     1e4:	4629      	mov	r1, r5
     1e6:	4605      	mov	r5, r0
     1e8:	4620      	mov	r0, r4
     1ea:	6a1b      	ldr	r3, [r3, #32]
     1ec:	4798      	blx	r3
     1ee:	4628      	mov	r0, r5
     1f0:	b005      	add	sp, #20
     1f2:	bdf0      	pop	{r4, r5, r6, r7, pc}
     1f4:	00002332 	.word	0x00002332
     1f8:	00002330 	.word	0x00002330

000001fc <RequestAuthKey(API*, char const*, char const*)>:
     1fc:	6803      	ldr	r3, [r0, #0]
     1fe:	b5f0      	push	{r4, r5, r6, r7, lr}
     200:	699b      	ldr	r3, [r3, #24]
     202:	b085      	sub	sp, #20
     204:	4604      	mov	r4, r0
     206:	460e      	mov	r6, r1
     208:	4617      	mov	r7, r2
     20a:	4798      	blx	r3
     20c:	4605      	mov	r5, r0
     20e:	b1b8      	cbz	r0, 240 <RequestAuthKey(API*, char const*, char const*)+0x44>
     210:	4629      	mov	r1, r5
     212:	2000      	movs	r0, #0
     214:	2250      	movs	r2, #80	; 0x50
     216:	4b10      	ldr	r3, [pc, #64]	; (258 <RequestAuthKey(API*, char const*, char const*)+0x5c>)
     218:	f801 0b01 	strb.w	r0, [r1], #1
     21c:	4620      	mov	r0, r4
     21e:	f8d4 c000 	ldr.w	ip, [r4]
     222:	447b      	add	r3, pc
     224:	9702      	str	r7, [sp, #8]
     226:	e9cd 2600 	strd	r2, r6, [sp]
     22a:	4a0c      	ldr	r2, [pc, #48]	; (25c <RequestAuthKey(API*, char const*, char const*)+0x60>)
     22c:	f8dc 60b4 	ldr.w	r6, [ip, #180]	; 0xb4
     230:	447a      	add	r2, pc
     232:	47b0      	blx	r6
     234:	6823      	ldr	r3, [r4, #0]
     236:	4629      	mov	r1, r5
     238:	4620      	mov	r0, r4
     23a:	69db      	ldr	r3, [r3, #28]
     23c:	4798      	blx	r3
     23e:	b110      	cbz	r0, 246 <RequestAuthKey(API*, char const*, char const*)+0x4a>
     240:	4628      	mov	r0, r5
     242:	b005      	add	sp, #20
     244:	bdf0      	pop	{r4, r5, r6, r7, pc}
     246:	6823      	ldr	r3, [r4, #0]
     248:	4629      	mov	r1, r5
     24a:	4605      	mov	r5, r0
     24c:	4620      	mov	r0, r4
     24e:	6a1b      	ldr	r3, [r3, #32]
     250:	4798      	blx	r3
     252:	4628      	mov	r0, r5
     254:	b005      	add	sp, #20
     256:	bdf0      	pop	{r4, r5, r6, r7, pc}
     258:	000022ce 	.word	0x000022ce
     25c:	000022ec 	.word	0x000022ec

00000260 <ParseAuthResponse(API*, HTTPRequest*, unsigned long&)>:
     260:	b538      	push	{r3, r4, r5, lr}
     262:	f891 4095 	ldrb.w	r4, [r1, #149]	; 0x95
     266:	b154      	cbz	r4, 27e <ParseAuthResponse(API*, HTTPRequest*, unsigned long&)+0x1e>
     268:	460b      	mov	r3, r1
     26a:	6805      	ldr	r5, [r0, #0]
     26c:	4611      	mov	r1, r2
     26e:	f8d5 50a4 	ldr.w	r5, [r5, #164]	; 0xa4
     272:	f8d3 208c 	ldr.w	r2, [r3, #140]	; 0x8c
     276:	2304      	movs	r3, #4
     278:	47a8      	blx	r5
     27a:	4620      	mov	r0, r4
     27c:	bd38      	pop	{r3, r4, r5, pc}
     27e:	f04f 33ff 	mov.w	r3, #4294967295	; 0xffffffff
     282:	4620      	mov	r0, r4
     284:	6013      	str	r3, [r2, #0]
     286:	bd38      	pop	{r3, r4, r5, pc}

00000288 <ParseGamesList(API*, HTTPRequest*, GameDesc*, unsigned long&)>:
     288:	e92d 4ff0 	stmdb	sp!, {r4, r5, r6, r7, r8, r9, sl, fp, lr}
     28c:	469b      	mov	fp, r3
     28e:	b083      	sub	sp, #12
     290:	f8d1 308c 	ldr.w	r3, [r1, #140]	; 0x8c
     294:	4605      	mov	r5, r0
     296:	6804      	ldr	r4, [r0, #0]
     298:	4659      	mov	r1, fp
     29a:	9201      	str	r2, [sp, #4]
     29c:	461a      	mov	r2, r3
     29e:	2304      	movs	r3, #4
     2a0:	f8d4 40a4 	ldr.w	r4, [r4, #164]	; 0xa4
     2a4:	18d6      	adds	r6, r2, r3
     2a6:	47a0      	blx	r4
     2a8:	f8db 3000 	ldr.w	r3, [fp]
     2ac:	2b00      	cmp	r3, #0
     2ae:	d058      	beq.n	362 <ParseGamesList(API*, HTTPRequest*, GameDesc*, unsigned long&)+0xda>
     2b0:	f04f 0a00 	mov.w	sl, #0
     2b4:	9b01      	ldr	r3, [sp, #4]
     2b6:	46d0      	mov	r8, sl
     2b8:	f103 0414 	add.w	r4, r3, #20
     2bc:	27ac      	movs	r7, #172	; 0xac
     2be:	223c      	movs	r2, #60	; 0x3c
     2c0:	f844 8c14 	str.w	r8, [r4, #-20]
     2c4:	1f21      	subs	r1, r4, #4
     2c6:	f844 2c10 	str.w	r2, [r4, #-16]
     2ca:	2304      	movs	r3, #4
     2cc:	f884 8004 	strb.w	r8, [r4, #4]
     2d0:	4632      	mov	r2, r6
     2d2:	f8c4 8024 	str.w	r8, [r4, #36]	; 0x24
     2d6:	4628      	mov	r0, r5
     2d8:	f884 802c 	strb.w	r8, [r4, #44]	; 0x2c
     2dc:	f106 0908 	add.w	r9, r6, #8
     2e0:	f8c4 8030 	str.w	r8, [r4, #48]	; 0x30
     2e4:	f10a 0a01 	add.w	sl, sl, #1
     2e8:	e944 7703 	strd	r7, r7, [r4, #-12]
     2ec:	f04f 37ff 	mov.w	r7, #4294967295	; 0xffffffff
     2f0:	f844 7c04 	str.w	r7, [r4, #-4]
     2f4:	62a7      	str	r7, [r4, #40]	; 0x28
     2f6:	682f      	ldr	r7, [r5, #0]
     2f8:	f8d7 70a4 	ldr.w	r7, [r7, #164]	; 0xa4
     2fc:	47b8      	blx	r7
     2fe:	6829      	ldr	r1, [r5, #0]
     300:	2304      	movs	r3, #4
     302:	4628      	mov	r0, r5
     304:	18f2      	adds	r2, r6, r3
     306:	f8d1 60a4 	ldr.w	r6, [r1, #164]	; 0xa4
     30a:	4621      	mov	r1, r4
     30c:	47b0      	blx	r6
     30e:	682b      	ldr	r3, [r5, #0]
     310:	4649      	mov	r1, r9
     312:	4628      	mov	r0, r5
     314:	f8d3 30ac 	ldr.w	r3, [r3, #172]	; 0xac
     318:	4798      	blx	r3
     31a:	682b      	ldr	r3, [r5, #0]
     31c:	1c46      	adds	r6, r0, #1
     31e:	1d21      	adds	r1, r4, #4
     320:	f8d3 70a4 	ldr.w	r7, [r3, #164]	; 0xa4
     324:	464a      	mov	r2, r9
     326:	4633      	mov	r3, r6
     328:	4628      	mov	r0, r5
     32a:	47b8      	blx	r7
     32c:	f8db 3000 	ldr.w	r3, [fp]
     330:	444e      	add	r6, r9
     332:	3448      	adds	r4, #72	; 0x48
     334:	4553      	cmp	r3, sl
     336:	d8c1      	bhi.n	2bc <ParseGamesList(API*, HTTPRequest*, GameDesc*, unsigned long&)+0x34>
     338:	b19b      	cbz	r3, 362 <ParseGamesList(API*, HTTPRequest*, GameDesc*, unsigned long&)+0xda>
     33a:	2100      	movs	r1, #0
     33c:	9b01      	ldr	r3, [sp, #4]
     33e:	f04f 32ff 	mov.w	r2, #4294967295	; 0xffffffff
     342:	2408      	movs	r4, #8
     344:	4608      	mov	r0, r1
     346:	601c      	str	r4, [r3, #0]
     348:	3101      	adds	r1, #1
     34a:	6398      	str	r0, [r3, #56]	; 0x38
     34c:	34c0      	adds	r4, #192	; 0xc0
     34e:	63da      	str	r2, [r3, #60]	; 0x3c
     350:	3348      	adds	r3, #72	; 0x48
     352:	f803 0c08 	strb.w	r0, [r3, #-8]
     356:	f843 0c04 	str.w	r0, [r3, #-4]
     35a:	f8db 5000 	ldr.w	r5, [fp]
     35e:	428d      	cmp	r5, r1
     360:	d8f1      	bhi.n	346 <ParseGamesList(API*, HTTPRequest*, GameDesc*, unsigned long&)+0xbe>
     362:	b003      	add	sp, #12
     364:	e8bd 8ff0 	ldmia.w	sp!, {r4, r5, r6, r7, r8, r9, sl, fp, pc}

00000368 <RequestGamesList(API*, unsigned long)>:
     368:	6803      	ldr	r3, [r0, #0]
     36a:	b5f0      	push	{r4, r5, r6, r7, lr}
     36c:	699b      	ldr	r3, [r3, #24]
     36e:	b083      	sub	sp, #12
     370:	4604      	mov	r4, r0
     372:	460e      	mov	r6, r1
     374:	4798      	blx	r3
     376:	4605      	mov	r5, r0
     378:	b1a8      	cbz	r0, 3a6 <RequestGamesList(API*, unsigned long)+0x3e>
     37a:	4629      	mov	r1, r5
     37c:	2000      	movs	r0, #0
     37e:	2250      	movs	r2, #80	; 0x50
     380:	4b0f      	ldr	r3, [pc, #60]	; (3c0 <RequestGamesList(API*, unsigned long)+0x58>)
     382:	f801 0b01 	strb.w	r0, [r1], #1
     386:	4620      	mov	r0, r4
     388:	6827      	ldr	r7, [r4, #0]
     38a:	447b      	add	r3, pc
     38c:	e9cd 2600 	strd	r2, r6, [sp]
     390:	4a0c      	ldr	r2, [pc, #48]	; (3c4 <RequestGamesList(API*, unsigned long)+0x5c>)
     392:	f8d7 60b4 	ldr.w	r6, [r7, #180]	; 0xb4
     396:	447a      	add	r2, pc
     398:	47b0      	blx	r6
     39a:	6823      	ldr	r3, [r4, #0]
     39c:	4629      	mov	r1, r5
     39e:	4620      	mov	r0, r4
     3a0:	69db      	ldr	r3, [r3, #28]
     3a2:	4798      	blx	r3
     3a4:	b110      	cbz	r0, 3ac <RequestGamesList(API*, unsigned long)+0x44>
     3a6:	4628      	mov	r0, r5
     3a8:	b003      	add	sp, #12
     3aa:	bdf0      	pop	{r4, r5, r6, r7, pc}
     3ac:	6823      	ldr	r3, [r4, #0]
     3ae:	4629      	mov	r1, r5
     3b0:	4605      	mov	r5, r0
     3b2:	4620      	mov	r0, r4
     3b4:	6a1b      	ldr	r3, [r3, #32]
     3b6:	4798      	blx	r3
     3b8:	4628      	mov	r0, r5
     3ba:	b003      	add	sp, #12
     3bc:	bdf0      	pop	{r4, r5, r6, r7, pc}
     3be:	bf00      	nop
     3c0:	00002166 	.word	0x00002166
     3c4:	000021a2 	.word	0x000021a2

000003c8 <RequestIcon(API*, unsigned long, unsigned long, unsigned char*)>:
     3c8:	e92d 41f0 	stmdb	sp!, {r4, r5, r6, r7, r8, lr}
     3cc:	461e      	mov	r6, r3
     3ce:	6803      	ldr	r3, [r0, #0]
     3d0:	b084      	sub	sp, #16
     3d2:	4605      	mov	r5, r0
     3d4:	699b      	ldr	r3, [r3, #24]
     3d6:	460f      	mov	r7, r1
     3d8:	4690      	mov	r8, r2
     3da:	4798      	blx	r3
     3dc:	4604      	mov	r4, r0
     3de:	b1e8      	cbz	r0, 41c <RequestIcon(API*, unsigned long, unsigned long, unsigned char*)+0x54>
     3e0:	4621      	mov	r1, r4
     3e2:	2000      	movs	r0, #0
     3e4:	2250      	movs	r2, #80	; 0x50
     3e6:	4b15      	ldr	r3, [pc, #84]	; (43c <RequestIcon(API*, unsigned long, unsigned long, unsigned char*)+0x74>)
     3e8:	f801 0b01 	strb.w	r0, [r1], #1
     3ec:	4628      	mov	r0, r5
     3ee:	f8d5 c000 	ldr.w	ip, [r5]
     3f2:	447b      	add	r3, pc
     3f4:	f8cd 8008 	str.w	r8, [sp, #8]
     3f8:	e9cd 2700 	strd	r2, r7, [sp]
     3fc:	4a10      	ldr	r2, [pc, #64]	; (440 <RequestIcon(API*, unsigned long, unsigned long, unsigned char*)+0x78>)
     3fe:	f8dc 70b4 	ldr.w	r7, [ip, #180]	; 0xb4
     402:	447a      	add	r2, pc
     404:	47b8      	blx	r7
     406:	4b0c      	ldr	r3, [pc, #48]	; (438 <RequestIcon(API*, unsigned long, unsigned long, unsigned char*)+0x70>)
     408:	f8c4 608c 	str.w	r6, [r4, #140]	; 0x8c
     40c:	4621      	mov	r1, r4
     40e:	f8c4 3090 	str.w	r3, [r4, #144]	; 0x90
     412:	4628      	mov	r0, r5
     414:	682b      	ldr	r3, [r5, #0]
     416:	69db      	ldr	r3, [r3, #28]
     418:	4798      	blx	r3
     41a:	b118      	cbz	r0, 424 <RequestIcon(API*, unsigned long, unsigned long, unsigned char*)+0x5c>
     41c:	4620      	mov	r0, r4
     41e:	b004      	add	sp, #16
     420:	e8bd 81f0 	ldmia.w	sp!, {r4, r5, r6, r7, r8, pc}
     424:	682b      	ldr	r3, [r5, #0]
     426:	4621      	mov	r1, r4
     428:	4604      	mov	r4, r0
     42a:	4628      	mov	r0, r5
     42c:	6a1b      	ldr	r3, [r3, #32]
     42e:	4798      	blx	r3
     430:	4620      	mov	r0, r4
     432:	b004      	add	sp, #16
     434:	e8bd 81f0 	ldmia.w	sp!, {r4, r5, r6, r7, r8, pc}
     438:	0001ce40 	.word	0x0001ce40
     43c:	000020fe 	.word	0x000020fe
     440:	00002152 	.word	0x00002152

00000444 <RequestGameAsset(API*, unsigned long, unsigned long, unsigned long, unsigned char*)>:
     444:	e92d 41f0 	stmdb	sp!, {r4, r5, r6, r7, r8, lr}
     448:	460e      	mov	r6, r1
     44a:	6801      	ldr	r1, [r0, #0]
     44c:	b084      	sub	sp, #16
     44e:	4605      	mov	r5, r0
     450:	6989      	ldr	r1, [r1, #24]
     452:	4617      	mov	r7, r2
     454:	4698      	mov	r8, r3
     456:	4788      	blx	r1
     458:	4604      	mov	r4, r0
     45a:	b1f8      	cbz	r0, 49c <RequestGameAsset(API*, unsigned long, unsigned long, unsigned long, unsigned char*)+0x58>
     45c:	4601      	mov	r1, r0
     45e:	2200      	movs	r2, #0
     460:	2350      	movs	r3, #80	; 0x50
     462:	4628      	mov	r0, r5
     464:	f801 2b01 	strb.w	r2, [r1], #1
     468:	682a      	ldr	r2, [r5, #0]
     46a:	9300      	str	r3, [sp, #0]
     46c:	f8cd 800c 	str.w	r8, [sp, #12]
     470:	4b11      	ldr	r3, [pc, #68]	; (4b8 <RequestGameAsset(API*, unsigned long, unsigned long, unsigned long, unsigned char*)+0x74>)
     472:	e9cd 6701 	strd	r6, r7, [sp, #4]
     476:	f8d2 60b4 	ldr.w	r6, [r2, #180]	; 0xb4
     47a:	447b      	add	r3, pc
     47c:	4a0f      	ldr	r2, [pc, #60]	; (4bc <RequestGameAsset(API*, unsigned long, unsigned long, unsigned long, unsigned char*)+0x78>)
     47e:	447a      	add	r2, pc
     480:	47b0      	blx	r6
     482:	f44f 1380 	mov.w	r3, #1048576	; 0x100000
     486:	9a0a      	ldr	r2, [sp, #40]	; 0x28
     488:	4621      	mov	r1, r4
     48a:	f8c4 3090 	str.w	r3, [r4, #144]	; 0x90
     48e:	4628      	mov	r0, r5
     490:	f8c4 208c 	str.w	r2, [r4, #140]	; 0x8c
     494:	682b      	ldr	r3, [r5, #0]
     496:	69db      	ldr	r3, [r3, #28]
     498:	4798      	blx	r3
     49a:	b118      	cbz	r0, 4a4 <RequestGameAsset(API*, unsigned long, unsigned long, unsigned long, unsigned char*)+0x60>
     49c:	4620      	mov	r0, r4
     49e:	b004      	add	sp, #16
     4a0:	e8bd 81f0 	ldmia.w	sp!, {r4, r5, r6, r7, r8, pc}
     4a4:	682b      	ldr	r3, [r5, #0]
     4a6:	4621      	mov	r1, r4
     4a8:	4604      	mov	r4, r0
     4aa:	4628      	mov	r0, r5
     4ac:	6a1b      	ldr	r3, [r3, #32]
     4ae:	4798      	blx	r3
     4b0:	4620      	mov	r0, r4
     4b2:	b004      	add	sp, #16
     4b4:	e8bd 81f0 	ldmia.w	sp!, {r4, r5, r6, r7, r8, pc}
     4b8:	00002076 	.word	0x00002076
     4bc:	000020f6 	.word	0x000020f6

000004c0 <RequestGameCode(API*, unsigned long, unsigned long, unsigned char*)>:
     4c0:	e92d 41f0 	stmdb	sp!, {r4, r5, r6, r7, r8, lr}
     4c4:	461e      	mov	r6, r3
     4c6:	6803      	ldr	r3, [r0, #0]
     4c8:	b084      	sub	sp, #16
     4ca:	4605      	mov	r5, r0
     4cc:	699b      	ldr	r3, [r3, #24]
     4ce:	460f      	mov	r7, r1
     4d0:	4690      	mov	r8, r2
     4d2:	4798      	blx	r3
     4d4:	4604      	mov	r4, r0
     4d6:	b1f0      	cbz	r0, 516 <RequestGameCode(API*, unsigned long, unsigned long, unsigned char*)+0x56>
     4d8:	4621      	mov	r1, r4
     4da:	2000      	movs	r0, #0
     4dc:	2250      	movs	r2, #80	; 0x50
     4de:	4b15      	ldr	r3, [pc, #84]	; (534 <RequestGameCode(API*, unsigned long, unsigned long, unsigned char*)+0x74>)
     4e0:	f801 0b01 	strb.w	r0, [r1], #1
     4e4:	4628      	mov	r0, r5
     4e6:	f8d5 c000 	ldr.w	ip, [r5]
     4ea:	447b      	add	r3, pc
     4ec:	f8cd 8008 	str.w	r8, [sp, #8]
     4f0:	e9cd 2700 	strd	r2, r7, [sp]
     4f4:	4a10      	ldr	r2, [pc, #64]	; (538 <RequestGameCode(API*, unsigned long, unsigned long, unsigned char*)+0x78>)
     4f6:	f8dc 70b4 	ldr.w	r7, [ip, #180]	; 0xb4
     4fa:	447a      	add	r2, pc
     4fc:	47b8      	blx	r7
     4fe:	f44f 6380 	mov.w	r3, #1024	; 0x400
     502:	f8c4 608c 	str.w	r6, [r4, #140]	; 0x8c
     506:	4621      	mov	r1, r4
     508:	f8c4 3090 	str.w	r3, [r4, #144]	; 0x90
     50c:	4628      	mov	r0, r5
     50e:	682b      	ldr	r3, [r5, #0]
     510:	69db      	ldr	r3, [r3, #28]
     512:	4798      	blx	r3
     514:	b118      	cbz	r0, 51e <RequestGameCode(API*, unsigned long, unsigned long, unsigned char*)+0x5e>
     516:	4620      	mov	r0, r4
     518:	b004      	add	sp, #16
     51a:	e8bd 81f0 	ldmia.w	sp!, {r4, r5, r6, r7, r8, pc}
     51e:	682b      	ldr	r3, [r5, #0]
     520:	4621      	mov	r1, r4
     522:	4604      	mov	r4, r0
     524:	4628      	mov	r0, r5
     526:	6a1b      	ldr	r3, [r3, #32]
     528:	4798      	blx	r3
     52a:	4620      	mov	r0, r4
     52c:	b004      	add	sp, #16
     52e:	e8bd 81f0 	ldmia.w	sp!, {r4, r5, r6, r7, r8, pc}
     532:	bf00      	nop
     534:	00002006 	.word	0x00002006
     538:	000020a6 	.word	0x000020a6

0000053c <Context::OnGameSelected(unsigned long)>:
     53c:	f890 3190 	ldrb.w	r3, [r0, #400]	; 0x190
     540:	2b00      	cmp	r3, #0
     542:	d146      	bne.n	5d2 <Context::OnGameSelected(unsigned long)+0x96>
     544:	eb01 02c1 	add.w	r2, r1, r1, lsl #3
     548:	b5f0      	push	{r4, r5, r6, r7, lr}
     54a:	f8d0 61fc 	ldr.w	r6, [r0, #508]	; 0x1fc
     54e:	4604      	mov	r4, r0
     550:	460d      	mov	r5, r1
     552:	b083      	sub	sp, #12
     554:	eb06 06c2 	add.w	r6, r6, r2, lsl #3
     558:	6800      	ldr	r0, [r0, #0]
     55a:	f8d4 1194 	ldr.w	r1, [r4, #404]	; 0x194
     55e:	6972      	ldr	r2, [r6, #20]
     560:	b1f2      	cbz	r2, 5a0 <Context::OnGameSelected(unsigned long)+0x64>
     562:	f8d4 7198 	ldr.w	r7, [r4, #408]	; 0x198
     566:	f8c4 320c 	str.w	r3, [r4, #524]	; 0x20c
     56a:	6932      	ldr	r2, [r6, #16]
     56c:	9700      	str	r7, [sp, #0]
     56e:	f7ff ff69 	bl	444 <RequestGameAsset(API*, unsigned long, unsigned long, unsigned long, unsigned char*)>
     572:	f8c4 018c 	str.w	r0, [r4, #396]	; 0x18c
     576:	b178      	cbz	r0, 598 <Context::OnGameSelected(unsigned long)+0x5c>
     578:	6821      	ldr	r1, [r4, #0]
     57a:	2205      	movs	r2, #5
     57c:	f8d4 320c 	ldr.w	r3, [r4, #524]	; 0x20c
     580:	f884 2190 	strb.w	r2, [r4, #400]	; 0x190
     584:	4608      	mov	r0, r1
     586:	e9d6 2704 	ldrd	r2, r7, [r6, #16]
     58a:	680e      	ldr	r6, [r1, #0]
     58c:	4911      	ldr	r1, [pc, #68]	; (5d4 <Context::OnGameSelected(unsigned long)+0x98>)
     58e:	9700      	str	r7, [sp, #0]
     590:	4479      	add	r1, pc
     592:	f8d6 60b8 	ldr.w	r6, [r6, #184]	; 0xb8
     596:	47b0      	blx	r6
     598:	f8c4 5208 	str.w	r5, [r4, #520]	; 0x208
     59c:	b003      	add	sp, #12
     59e:	bdf0      	pop	{r4, r5, r6, r7, pc}
     5a0:	f8d4 3204 	ldr.w	r3, [r4, #516]	; 0x204
     5a4:	6932      	ldr	r2, [r6, #16]
     5a6:	f7ff ff8b 	bl	4c0 <RequestGameCode(API*, unsigned long, unsigned long, unsigned char*)>
     5aa:	f8c4 018c 	str.w	r0, [r4, #396]	; 0x18c
     5ae:	2800      	cmp	r0, #0
     5b0:	d0f2      	beq.n	598 <Context::OnGameSelected(unsigned long)+0x5c>
     5b2:	6823      	ldr	r3, [r4, #0]
     5b4:	2206      	movs	r2, #6
     5b6:	4908      	ldr	r1, [pc, #32]	; (5d8 <Context::OnGameSelected(unsigned long)+0x9c>)
     5b8:	f884 2190 	strb.w	r2, [r4, #400]	; 0x190
     5bc:	4618      	mov	r0, r3
     5be:	681b      	ldr	r3, [r3, #0]
     5c0:	4479      	add	r1, pc
     5c2:	6932      	ldr	r2, [r6, #16]
     5c4:	f8d3 30b8 	ldr.w	r3, [r3, #184]	; 0xb8
     5c8:	4798      	blx	r3
     5ca:	f8c4 5208 	str.w	r5, [r4, #520]	; 0x208
     5ce:	b003      	add	sp, #12
     5d0:	bdf0      	pop	{r4, r5, r6, r7, pc}
     5d2:	4770      	bx	lr
     5d4:	00002030 	.word	0x00002030
     5d8:	00002020 	.word	0x00002020

000005dc <Context::OnRefreshPressed()>:
     5dc:	f890 3190 	ldrb.w	r3, [r0, #400]	; 0x190
     5e0:	b9eb      	cbnz	r3, 61e <Context::OnRefreshPressed()+0x42>
     5e2:	f8d0 31f8 	ldr.w	r3, [r0, #504]	; 0x1f8
     5e6:	b9d3      	cbnz	r3, 61e <Context::OnRefreshPressed()+0x42>
     5e8:	2203      	movs	r2, #3
     5ea:	b570      	push	{r4, r5, r6, lr}
     5ec:	4604      	mov	r4, r0
     5ee:	2602      	movs	r6, #2
     5f0:	2001      	movs	r0, #1
     5f2:	2504      	movs	r5, #4
     5f4:	f8d4 1194 	ldr.w	r1, [r4, #404]	; 0x194
     5f8:	f8c4 3200 	str.w	r3, [r4, #512]	; 0x200
     5fc:	f8c4 31b0 	str.w	r3, [r4, #432]	; 0x1b0
     600:	1c4b      	adds	r3, r1, #1
     602:	e9c4 066d 	strd	r0, r6, [r4, #436]	; 0x1b4
     606:	e9c4 256f 	strd	r2, r5, [r4, #444]	; 0x1bc
     60a:	6820      	ldr	r0, [r4, #0]
     60c:	d008      	beq.n	620 <Context::OnRefreshPressed()+0x44>
     60e:	f7ff feab 	bl	368 <RequestGamesList(API*, unsigned long)>
     612:	f8c4 018c 	str.w	r0, [r4, #396]	; 0x18c
     616:	b108      	cbz	r0, 61c <Context::OnRefreshPressed()+0x40>
     618:	f884 5190 	strb.w	r5, [r4, #400]	; 0x190
     61c:	bd70      	pop	{r4, r5, r6, pc}
     61e:	4770      	bx	lr
     620:	f104 0284 	add.w	r2, r4, #132	; 0x84
     624:	1961      	adds	r1, r4, r5
     626:	f7ff fde9 	bl	1fc <RequestAuthKey(API*, char const*, char const*)>
     62a:	f8c4 018c 	str.w	r0, [r4, #396]	; 0x18c
     62e:	2800      	cmp	r0, #0
     630:	d0f4      	beq.n	61c <Context::OnRefreshPressed()+0x40>
     632:	f884 6190 	strb.w	r6, [r4, #400]	; 0x190
     636:	bd70      	pop	{r4, r5, r6, pc}

00000638 <Context::OnChangePasswordPressed()>:
     638:	f890 3190 	ldrb.w	r3, [r0, #400]	; 0x190
     63c:	b923      	cbnz	r3, 648 <Context::OnChangePasswordPressed()+0x10>
     63e:	b570      	push	{r4, r5, r6, lr}
     640:	f8d0 51f8 	ldr.w	r5, [r0, #504]	; 0x1f8
     644:	b10d      	cbz	r5, 64a <Context::OnChangePasswordPressed()+0x12>
     646:	bd70      	pop	{r4, r5, r6, pc}
     648:	4770      	bx	lr
     64a:	f8d0 335c 	ldr.w	r3, [r0, #860]	; 0x35c
     64e:	2201      	movs	r2, #1
     650:	4604      	mov	r4, r0
     652:	f100 0684 	add.w	r6, r0, #132	; 0x84
     656:	f880 2364 	strb.w	r2, [r0, #868]	; 0x364
     65a:	f500 7166 	add.w	r1, r0, #920	; 0x398
     65e:	4618      	mov	r0, r3
     660:	681b      	ldr	r3, [r3, #0]
     662:	4632      	mov	r2, r6
     664:	f8d3 30b0 	ldr.w	r3, [r3, #176]	; 0xb0
     668:	4798      	blx	r3
     66a:	f8d4 035c 	ldr.w	r0, [r4, #860]	; 0x35c
     66e:	4631      	mov	r1, r6
     670:	6803      	ldr	r3, [r0, #0]
     672:	f8d3 30ac 	ldr.w	r3, [r3, #172]	; 0xac
     676:	4798      	blx	r3
     678:	2200      	movs	r2, #0
     67a:	2308      	movs	r3, #8
     67c:	f8c4 03ac 	str.w	r0, [r4, #940]	; 0x3ac
     680:	f884 53b8 	strb.w	r5, [r4, #952]	; 0x3b8
     684:	f8c4 2394 	str.w	r2, [r4, #916]	; 0x394
     688:	f884 3190 	strb.w	r3, [r4, #400]	; 0x190
     68c:	bd70      	pop	{r4, r5, r6, pc}
     68e:	bf00      	nop

00000690 <Context::ProcessInput()>:
     690:	e92d 4ff0 	stmdb	sp!, {r4, r5, r6, r7, r8, r9, sl, fp, lr}
     694:	4604      	mov	r4, r0
     696:	6800      	ldr	r0, [r0, #0]
     698:	b085      	sub	sp, #20
     69a:	6803      	ldr	r3, [r0, #0]
     69c:	f504 718a 	add.w	r1, r4, #276	; 0x114
     6a0:	68db      	ldr	r3, [r3, #12]
     6a2:	4798      	blx	r3
     6a4:	f894 3218 	ldrb.w	r3, [r4, #536]	; 0x218
     6a8:	b94b      	cbnz	r3, 6be <Context::ProcessInput()+0x2e>
     6aa:	f894 3114 	ldrb.w	r3, [r4, #276]	; 0x114
     6ae:	2b01      	cmp	r3, #1
     6b0:	d02f      	beq.n	712 <Context::ProcessInput()+0x82>
     6b2:	2300      	movs	r3, #0
     6b4:	f884 3218 	strb.w	r3, [r4, #536]	; 0x218
     6b8:	b005      	add	sp, #20
     6ba:	e8bd 8ff0 	ldmia.w	sp!, {r4, r5, r6, r7, r8, r9, sl, fp, pc}
     6be:	f894 3114 	ldrb.w	r3, [r4, #276]	; 0x114
     6c2:	b9db      	cbnz	r3, 6fc <Context::ProcessInput()+0x6c>
     6c4:	6820      	ldr	r0, [r4, #0]
     6c6:	6803      	ldr	r3, [r0, #0]
     6c8:	f8d3 30c0 	ldr.w	r3, [r3, #192]	; 0xc0
     6cc:	4798      	blx	r3
     6ce:	edd4 7a88 	vldr	s15, [r4, #544]	; 0x220
     6d2:	ee06 0a90 	vmov	s13, r0
     6d6:	ed9f 7ab6 	vldr	s14, [pc, #728]	; 9b0 <Context::ProcessInput()+0x320>
     6da:	ee76 7ae7 	vsub.f32	s15, s13, s15
     6de:	eef4 7ac7 	vcmpe.f32	s15, s14
     6e2:	eef1 fa10 	vmrs	APSR_nzcv, fpscr
     6e6:	d507      	bpl.n	6f8 <Context::ProcessInput()+0x68>
     6e8:	f8b4 621a 	ldrh.w	r6, [r4, #538]	; 0x21a
     6ec:	2101      	movs	r1, #1
     6ee:	f8b4 721c 	ldrh.w	r7, [r4, #540]	; 0x21c
     6f2:	f894 3114 	ldrb.w	r3, [r4, #276]	; 0x114
     6f6:	e01b      	b.n	730 <Context::ProcessInput()+0xa0>
     6f8:	f894 3114 	ldrb.w	r3, [r4, #276]	; 0x114
     6fc:	2b01      	cmp	r3, #1
     6fe:	d1d8      	bne.n	6b2 <Context::ProcessInput()+0x22>
     700:	2700      	movs	r7, #0
     702:	f8b4 0116 	ldrh.w	r0, [r4, #278]	; 0x116
     706:	f8b4 221a 	ldrh.w	r2, [r4, #538]	; 0x21a
     70a:	463e      	mov	r6, r7
     70c:	4639      	mov	r1, r7
     70e:	1a82      	subs	r2, r0, r2
     710:	e014      	b.n	73c <Context::ProcessInput()+0xac>
     712:	6820      	ldr	r0, [r4, #0]
     714:	6803      	ldr	r3, [r0, #0]
     716:	f8d3 30c0 	ldr.w	r3, [r3, #192]	; 0xc0
     71a:	4798      	blx	r3
     71c:	f894 1218 	ldrb.w	r1, [r4, #536]	; 0x218
     720:	f8c4 0220 	str.w	r0, [r4, #544]	; 0x220
     724:	2900      	cmp	r1, #0
     726:	d1ca      	bne.n	6be <Context::ProcessInput()+0x2e>
     728:	f894 3114 	ldrb.w	r3, [r4, #276]	; 0x114
     72c:	460f      	mov	r7, r1
     72e:	460e      	mov	r6, r1
     730:	2200      	movs	r2, #0
     732:	2b01      	cmp	r3, #1
     734:	f884 2218 	strb.w	r2, [r4, #536]	; 0x218
     738:	4613      	mov	r3, r2
     73a:	d10a      	bne.n	752 <Context::ProcessInput()+0xc2>
     73c:	f8b4 c116 	ldrh.w	ip, [r4, #278]	; 0x116
     740:	2001      	movs	r0, #1
     742:	f8b4 5120 	ldrh.w	r5, [r4, #288]	; 0x120
     746:	f8a4 c21a 	strh.w	ip, [r4, #538]	; 0x21a
     74a:	f8a4 521c 	strh.w	r5, [r4, #540]	; 0x21c
     74e:	f884 0218 	strb.w	r0, [r4, #536]	; 0x218
     752:	f894 0190 	ldrb.w	r0, [r4, #400]	; 0x190
     756:	2808      	cmp	r0, #8
     758:	d064      	beq.n	824 <Context::ProcessInput()+0x194>
     75a:	2900      	cmp	r1, #0
     75c:	d03f      	beq.n	7de <Context::ProcessInput()+0x14e>
     75e:	f8d4 316c 	ldr.w	r3, [r4, #364]	; 0x16c
     762:	42b3      	cmp	r3, r6
     764:	dc09      	bgt.n	77a <Context::ProcessInput()+0xea>
     766:	f8d4 2170 	ldr.w	r2, [r4, #368]	; 0x170
     76a:	42ba      	cmp	r2, r7
     76c:	dc05      	bgt.n	77a <Context::ProcessInput()+0xea>
     76e:	f8d4 1174 	ldr.w	r1, [r4, #372]	; 0x174
     772:	440b      	add	r3, r1
     774:	42b3      	cmp	r3, r6
     776:	f300 80d7 	bgt.w	928 <Context::ProcessInput()+0x298>
     77a:	f8d4 317c 	ldr.w	r3, [r4, #380]	; 0x17c
     77e:	42b3      	cmp	r3, r6
     780:	dc09      	bgt.n	796 <Context::ProcessInput()+0x106>
     782:	f8d4 2180 	ldr.w	r2, [r4, #384]	; 0x180
     786:	42ba      	cmp	r2, r7
     788:	dc05      	bgt.n	796 <Context::ProcessInput()+0x106>
     78a:	f8d4 1184 	ldr.w	r1, [r4, #388]	; 0x184
     78e:	440b      	add	r3, r1
     790:	42b3      	cmp	r3, r6
     792:	f300 80d5 	bgt.w	940 <Context::ProcessInput()+0x2b0>
     796:	f8d4 5200 	ldr.w	r5, [r4, #512]	; 0x200
     79a:	2d00      	cmp	r5, #0
     79c:	d08c      	beq.n	6b8 <Context::ProcessInput()+0x28>
     79e:	f8d4 31fc 	ldr.w	r3, [r4, #508]	; 0x1fc
     7a2:	2100      	movs	r1, #0
     7a4:	681a      	ldr	r2, [r3, #0]
     7a6:	42b2      	cmp	r2, r6
     7a8:	dc12      	bgt.n	7d0 <Context::ProcessInput()+0x140>
     7aa:	f8d3 c004 	ldr.w	ip, [r3, #4]
     7ae:	45bc      	cmp	ip, r7
     7b0:	dc0e      	bgt.n	7d0 <Context::ProcessInput()+0x140>
     7b2:	6898      	ldr	r0, [r3, #8]
     7b4:	4402      	add	r2, r0
     7b6:	42b2      	cmp	r2, r6
     7b8:	dd0a      	ble.n	7d0 <Context::ProcessInput()+0x140>
     7ba:	68da      	ldr	r2, [r3, #12]
     7bc:	eb0c 0002 	add.w	r0, ip, r2
     7c0:	42b8      	cmp	r0, r7
     7c2:	dd05      	ble.n	7d0 <Context::ProcessInput()+0x140>
     7c4:	4620      	mov	r0, r4
     7c6:	b005      	add	sp, #20
     7c8:	e8bd 4ff0 	ldmia.w	sp!, {r4, r5, r6, r7, r8, r9, sl, fp, lr}
     7cc:	f7ff beb6 	b.w	53c <Context::OnGameSelected(unsigned long)>
     7d0:	3101      	adds	r1, #1
     7d2:	3348      	adds	r3, #72	; 0x48
     7d4:	42a9      	cmp	r1, r5
     7d6:	d1e5      	bne.n	7a4 <Context::ProcessInput()+0x114>
     7d8:	b005      	add	sp, #20
     7da:	e8bd 8ff0 	ldmia.w	sp!, {r4, r5, r6, r7, r8, r9, sl, fp, pc}
     7de:	2b00      	cmp	r3, #0
     7e0:	f43f af6a 	beq.w	6b8 <Context::ProcessInput()+0x28>
     7e4:	f8d4 3200 	ldr.w	r3, [r4, #512]	; 0x200
     7e8:	2b00      	cmp	r3, #0
     7ea:	f43f af65 	beq.w	6b8 <Context::ProcessInput()+0x28>
     7ee:	f8d4 01fc 	ldr.w	r0, [r4, #508]	; 0x1fc
     7f2:	2a00      	cmp	r2, #0
     7f4:	6806      	ldr	r6, [r0, #0]
     7f6:	f340 80af 	ble.w	958 <Context::ProcessInput()+0x2c8>
     7fa:	18b5      	adds	r5, r6, r2
     7fc:	2d08      	cmp	r5, #8
     7fe:	dd02      	ble.n	806 <Context::ProcessInput()+0x176>
     800:	f1c6 0208 	rsb	r2, r6, #8
     804:	18b5      	adds	r5, r6, r2
     806:	2300      	movs	r3, #0
     808:	4619      	mov	r1, r3
     80a:	e003      	b.n	814 <Context::ProcessInput()+0x184>
     80c:	f8d4 01fc 	ldr.w	r0, [r4, #508]	; 0x1fc
     810:	58c6      	ldr	r6, [r0, r3]
     812:	18b5      	adds	r5, r6, r2
     814:	50c5      	str	r5, [r0, r3]
     816:	3101      	adds	r1, #1
     818:	f8d4 0200 	ldr.w	r0, [r4, #512]	; 0x200
     81c:	3348      	adds	r3, #72	; 0x48
     81e:	4288      	cmp	r0, r1
     820:	d8f4      	bhi.n	80c <Context::ProcessInput()+0x17c>
     822:	e749      	b.n	6b8 <Context::ProcessInput()+0x28>
     824:	2900      	cmp	r1, #0
     826:	f43f af47 	beq.w	6b8 <Context::ProcessInput()+0x28>
     82a:	f894 3364 	ldrb.w	r3, [r4, #868]	; 0x364
     82e:	2b02      	cmp	r3, #2
     830:	f43f af42 	beq.w	6b8 <Context::ProcessInput()+0x28>
     834:	f8df a17c 	ldr.w	sl, [pc, #380]	; 9b4 <Context::ProcessInput()+0x324>
     838:	2500      	movs	r5, #0
     83a:	f8df 917c 	ldr.w	r9, [pc, #380]	; 9b8 <Context::ProcessInput()+0x328>
     83e:	f04f 0801 	mov.w	r8, #1
     842:	44fa      	add	sl, pc
     844:	44f9      	add	r9, pc
     846:	e013      	b.n	870 <Context::ProcessInput()+0x1e0>
     848:	f894 238c 	ldrb.w	r2, [r4, #908]	; 0x38c
     84c:	2a00      	cmp	r2, #0
     84e:	d069      	beq.n	924 <Context::ProcessInput()+0x294>
     850:	7d5a      	ldrb	r2, [r3, #21]
     852:	f8d4 33ac 	ldr.w	r3, [r4, #940]	; 0x3ac
     856:	2b10      	cmp	r3, #16
     858:	d005      	beq.n	866 <Context::ProcessInput()+0x1d6>
     85a:	18e1      	adds	r1, r4, r3
     85c:	3301      	adds	r3, #1
     85e:	f881 2398 	strb.w	r2, [r1, #920]	; 0x398
     862:	f8c4 33ac 	str.w	r3, [r4, #940]	; 0x3ac
     866:	3518      	adds	r5, #24
     868:	f5b5 7f70 	cmp.w	r5, #960	; 0x3c0
     86c:	f43f af24 	beq.w	6b8 <Context::ProcessInput()+0x28>
     870:	f8d4 3390 	ldr.w	r3, [r4, #912]	; 0x390
     874:	442b      	add	r3, r5
     876:	685a      	ldr	r2, [r3, #4]
     878:	4296      	cmp	r6, r2
     87a:	dbf4      	blt.n	866 <Context::ProcessInput()+0x1d6>
     87c:	6899      	ldr	r1, [r3, #8]
     87e:	428f      	cmp	r7, r1
     880:	dbf1      	blt.n	866 <Context::ProcessInput()+0x1d6>
     882:	68d8      	ldr	r0, [r3, #12]
     884:	4402      	add	r2, r0
     886:	4296      	cmp	r6, r2
     888:	daed      	bge.n	866 <Context::ProcessInput()+0x1d6>
     88a:	691a      	ldr	r2, [r3, #16]
     88c:	4411      	add	r1, r2
     88e:	428f      	cmp	r7, r1
     890:	dae9      	bge.n	866 <Context::ProcessInput()+0x1d6>
     892:	781a      	ldrb	r2, [r3, #0]
     894:	f883 8016 	strb.w	r8, [r3, #22]
     898:	2a00      	cmp	r2, #0
     89a:	d0d5      	beq.n	848 <Context::ProcessInput()+0x1b8>
     89c:	2a01      	cmp	r2, #1
     89e:	d06b      	beq.n	978 <Context::ProcessInput()+0x2e8>
     8a0:	2a02      	cmp	r2, #2
     8a2:	d05c      	beq.n	95e <Context::ProcessInput()+0x2ce>
     8a4:	2a03      	cmp	r2, #3
     8a6:	d06e      	beq.n	986 <Context::ProcessInput()+0x2f6>
     8a8:	2a04      	cmp	r2, #4
     8aa:	d1dc      	bne.n	866 <Context::ProcessInput()+0x1d6>
     8ac:	f8d4 33ac 	ldr.w	r3, [r4, #940]	; 0x3ac
     8b0:	2b00      	cmp	r3, #0
     8b2:	d0d8      	beq.n	866 <Context::ProcessInput()+0x1d6>
     8b4:	f8d4 035c 	ldr.w	r0, [r4, #860]	; 0x35c
     8b8:	6803      	ldr	r3, [r0, #0]
     8ba:	699b      	ldr	r3, [r3, #24]
     8bc:	4798      	blx	r3
     8be:	f8c4 03b0 	str.w	r0, [r4, #944]	; 0x3b0
     8c2:	2800      	cmp	r0, #0
     8c4:	d0cf      	beq.n	866 <Context::ProcessInput()+0x1d6>
     8c6:	f880 8000 	strb.w	r8, [r0]
     8ca:	f504 7166 	add.w	r1, r4, #920	; 0x398
     8ce:	f8d4 035c 	ldr.w	r0, [r4, #860]	; 0x35c
     8d2:	f04f 0e50 	mov.w	lr, #80	; 0x50
     8d6:	f8d4 2388 	ldr.w	r2, [r4, #904]	; 0x388
     8da:	4653      	mov	r3, sl
     8dc:	f8d0 c000 	ldr.w	ip, [r0]
     8e0:	9201      	str	r2, [sp, #4]
     8e2:	464a      	mov	r2, r9
     8e4:	9102      	str	r1, [sp, #8]
     8e6:	f8d4 13b0 	ldr.w	r1, [r4, #944]	; 0x3b0
     8ea:	f8cd e000 	str.w	lr, [sp]
     8ee:	3101      	adds	r1, #1
     8f0:	f8dc b0b4 	ldr.w	fp, [ip, #180]	; 0xb4
     8f4:	47d8      	blx	fp
     8f6:	f8d4 035c 	ldr.w	r0, [r4, #860]	; 0x35c
     8fa:	f8d4 13b0 	ldr.w	r1, [r4, #944]	; 0x3b0
     8fe:	6803      	ldr	r3, [r0, #0]
     900:	69db      	ldr	r3, [r3, #28]
     902:	4798      	blx	r3
     904:	b930      	cbnz	r0, 914 <Context::ProcessInput()+0x284>
     906:	f8d4 035c 	ldr.w	r0, [r4, #860]	; 0x35c
     90a:	f8d4 13b0 	ldr.w	r1, [r4, #944]	; 0x3b0
     90e:	6803      	ldr	r3, [r0, #0]
     910:	6a1b      	ldr	r3, [r3, #32]
     912:	4798      	blx	r3
     914:	f8d4 33b0 	ldr.w	r3, [r4, #944]	; 0x3b0
     918:	2b00      	cmp	r3, #0
     91a:	d0a4      	beq.n	866 <Context::ProcessInput()+0x1d6>
     91c:	2302      	movs	r3, #2
     91e:	f884 3364 	strb.w	r3, [r4, #868]	; 0x364
     922:	e7a0      	b.n	866 <Context::ProcessInput()+0x1d6>
     924:	7d1a      	ldrb	r2, [r3, #20]
     926:	e794      	b.n	852 <Context::ProcessInput()+0x1c2>
     928:	f8d4 3178 	ldr.w	r3, [r4, #376]	; 0x178
     92c:	441a      	add	r2, r3
     92e:	42ba      	cmp	r2, r7
     930:	f77f af23 	ble.w	77a <Context::ProcessInput()+0xea>
     934:	4620      	mov	r0, r4
     936:	b005      	add	sp, #20
     938:	e8bd 4ff0 	ldmia.w	sp!, {r4, r5, r6, r7, r8, r9, sl, fp, lr}
     93c:	f7ff be4e 	b.w	5dc <Context::OnRefreshPressed()>
     940:	f8d4 3188 	ldr.w	r3, [r4, #392]	; 0x188
     944:	441a      	add	r2, r3
     946:	42ba      	cmp	r2, r7
     948:	f77f af25 	ble.w	796 <Context::ProcessInput()+0x106>
     94c:	4620      	mov	r0, r4
     94e:	b005      	add	sp, #20
     950:	e8bd 4ff0 	ldmia.w	sp!, {r4, r5, r6, r7, r8, r9, sl, fp, lr}
     954:	f7ff be70 	b.w	638 <Context::OnChangePasswordPressed()>
     958:	d119      	bne.n	98e <Context::ProcessInput()+0x2fe>
     95a:	4635      	mov	r5, r6
     95c:	e753      	b.n	806 <Context::ProcessInput()+0x176>
     95e:	f8d4 33ac 	ldr.w	r3, [r4, #940]	; 0x3ac
     962:	2b00      	cmp	r3, #0
     964:	f43f af7f 	beq.w	866 <Context::ProcessInput()+0x1d6>
     968:	3b01      	subs	r3, #1
     96a:	2100      	movs	r1, #0
     96c:	18e2      	adds	r2, r4, r3
     96e:	f882 1398 	strb.w	r1, [r2, #920]	; 0x398
     972:	f8c4 33ac 	str.w	r3, [r4, #940]	; 0x3ac
     976:	e776      	b.n	866 <Context::ProcessInput()+0x1d6>
     978:	f894 338c 	ldrb.w	r3, [r4, #908]	; 0x38c
     97c:	f083 0301 	eor.w	r3, r3, #1
     980:	f884 338c 	strb.w	r3, [r4, #908]	; 0x38c
     984:	e76f      	b.n	866 <Context::ProcessInput()+0x1d6>
     986:	2300      	movs	r3, #0
     988:	f884 3364 	strb.w	r3, [r4, #868]	; 0x364
     98c:	e76b      	b.n	866 <Context::ProcessInput()+0x1d6>
     98e:	eb03 03c3 	add.w	r3, r3, r3, lsl #3
     992:	eb00 03c3 	add.w	r3, r0, r3, lsl #3
     996:	f853 1c48 	ldr.w	r1, [r3, #-72]
     99a:	f101 03ac 	add.w	r3, r1, #172	; 0xac
     99e:	4413      	add	r3, r2
     9a0:	f5b3 7fec 	cmp.w	r3, #472	; 0x1d8
     9a4:	bfb8      	it	lt
     9a6:	f5c1 7296 	rsblt	r2, r1, #300	; 0x12c
     9aa:	18b5      	adds	r5, r6, r2
     9ac:	e72b      	b.n	806 <Context::ProcessInput()+0x176>
     9ae:	bf00      	nop
     9b0:	3dcccccd 	.word	0x3dcccccd
     9b4:	00001cae 	.word	0x00001cae
     9b8:	00001db8 	.word	0x00001db8

000009bc <Context::UpdateIcons()>:
     9bc:	e92d 4ff8 	stmdb	sp!, {r3, r4, r5, r6, r7, r8, r9, sl, fp, lr}
     9c0:	f8d0 3200 	ldr.w	r3, [r0, #512]	; 0x200
     9c4:	2b00      	cmp	r3, #0
     9c6:	f000 80d1 	beq.w	b6c <Context::UpdateIcons()+0x1b0>
     9ca:	2600      	movs	r6, #0
     9cc:	4604      	mov	r4, r0
     9ce:	4637      	mov	r7, r6
     9d0:	e040      	b.n	a54 <Context::UpdateIcons()+0x98>
     9d2:	eb05 0a01 	add.w	sl, r5, r1
     9d6:	f8d4 2108 	ldr.w	r2, [r4, #264]	; 0x108
     9da:	4562      	cmp	r2, ip
     9dc:	dd06      	ble.n	9ec <Context::UpdateIcons()+0x30>
     9de:	eba2 0e0c 	sub.w	lr, r2, ip
     9e2:	4694      	mov	ip, r2
     9e4:	eba8 080e 	sub.w	r8, r8, lr
     9e8:	ea28 78e8 	bic.w	r8, r8, r8, asr #31
     9ec:	f8d4 e110 	ldr.w	lr, [r4, #272]	; 0x110
     9f0:	4472      	add	r2, lr
     9f2:	4594      	cmp	ip, r2
     9f4:	db48      	blt.n	a88 <Context::UpdateIcons()+0xcc>
     9f6:	4553      	cmp	r3, sl
     9f8:	f2c0 80c0 	blt.w	b7c <Context::UpdateIcons()+0x1c0>
     9fc:	f894 31f4 	ldrb.w	r3, [r4, #500]	; 0x1f4
     a00:	f890 2040 	ldrb.w	r2, [r0, #64]	; 0x40
     a04:	b1eb      	cbz	r3, a42 <Context::UpdateIcons()+0x86>
     a06:	2a02      	cmp	r2, #2
     a08:	d11b      	bne.n	a42 <Context::UpdateIcons()+0x86>
     a0a:	f8d4 31c0 	ldr.w	r3, [r4, #448]	; 0x1c0
     a0e:	6bc1      	ldr	r1, [r0, #60]	; 0x3c
     a10:	eb04 0283 	add.w	r2, r4, r3, lsl #2
     a14:	3301      	adds	r3, #1
     a16:	f8c2 11b0 	str.w	r1, [r2, #432]	; 0x1b0
     a1a:	2200      	movs	r2, #0
     a1c:	f8c4 31c0 	str.w	r3, [r4, #448]	; 0x1c0
     a20:	f04f 33ff 	mov.w	r3, #4294967295	; 0xffffffff
     a24:	e9c0 230e 	strd	r2, r3, [r0, #56]	; 0x38
     a28:	f04f 0200 	mov.w	r2, #0
     a2c:	2300      	movs	r3, #0
     a2e:	f880 2040 	strb.w	r2, [r0, #64]	; 0x40
     a32:	6443      	str	r3, [r0, #68]	; 0x44
     a34:	f8d4 01fc 	ldr.w	r0, [r4, #508]	; 0x1fc
     a38:	f884 21f4 	strb.w	r2, [r4, #500]	; 0x1f4
     a3c:	4430      	add	r0, r6
     a3e:	f890 2040 	ldrb.w	r2, [r0, #64]	; 0x40
     a42:	2a01      	cmp	r2, #1
     a44:	d072      	beq.n	b2c <Context::UpdateIcons()+0x170>
     a46:	3701      	adds	r7, #1
     a48:	f8d4 3200 	ldr.w	r3, [r4, #512]	; 0x200
     a4c:	3648      	adds	r6, #72	; 0x48
     a4e:	42bb      	cmp	r3, r7
     a50:	f240 808c 	bls.w	b6c <Context::UpdateIcons()+0x1b0>
     a54:	f8d4 21fc 	ldr.w	r2, [r4, #508]	; 0x1fc
     a58:	f8d4 3104 	ldr.w	r3, [r4, #260]	; 0x104
     a5c:	5995      	ldr	r5, [r2, r6]
     a5e:	1990      	adds	r0, r2, r6
     a60:	42ab      	cmp	r3, r5
     a62:	f8d0 800c 	ldr.w	r8, [r0, #12]
     a66:	e9d0 c101 	ldrd	ip, r1, [r0, #4]
     a6a:	dd04      	ble.n	a76 <Context::UpdateIcons()+0xba>
     a6c:	1b5a      	subs	r2, r3, r5
     a6e:	461d      	mov	r5, r3
     a70:	1a89      	subs	r1, r1, r2
     a72:	ea21 71e1 	bic.w	r1, r1, r1, asr #31
     a76:	f8d4 910c 	ldr.w	r9, [r4, #268]	; 0x10c
     a7a:	444b      	add	r3, r9
     a7c:	429d      	cmp	r5, r3
     a7e:	dba8      	blt.n	9d2 <Context::UpdateIcons()+0x16>
     a80:	469a      	mov	sl, r3
     a82:	461d      	mov	r5, r3
     a84:	2100      	movs	r1, #0
     a86:	e7a6      	b.n	9d6 <Context::UpdateIcons()+0x1a>
     a88:	4553      	cmp	r3, sl
     a8a:	eb0c 0b08 	add.w	fp, ip, r8
     a8e:	da01      	bge.n	a94 <Context::UpdateIcons()+0xd8>
     a90:	eba9 0105 	sub.w	r1, r9, r5
     a94:	455a      	cmp	r2, fp
     a96:	da6e      	bge.n	b76 <Context::UpdateIcons()+0x1ba>
     a98:	ebae 030c 	sub.w	r3, lr, ip
     a9c:	fb01 f303 	mul.w	r3, r1, r3
     aa0:	f894 11f4 	ldrb.w	r1, [r4, #500]	; 0x1f4
     aa4:	f890 2040 	ldrb.w	r2, [r0, #64]	; 0x40
     aa8:	2900      	cmp	r1, #0
     aaa:	d061      	beq.n	b70 <Context::UpdateIcons()+0x1b4>
     aac:	2b00      	cmp	r3, #0
     aae:	d0aa      	beq.n	a06 <Context::UpdateIcons()+0x4a>
     ab0:	2a00      	cmp	r2, #0
     ab2:	d1c6      	bne.n	a42 <Context::UpdateIcons()+0x86>
     ab4:	f8d4 31c0 	ldr.w	r3, [r4, #448]	; 0x1c0
     ab8:	2b00      	cmp	r3, #0
     aba:	d064      	beq.n	b86 <Context::UpdateIcons()+0x1ca>
     abc:	eb04 0283 	add.w	r2, r4, r3, lsl #2
     ac0:	3b01      	subs	r3, #1
     ac2:	f8d2 51ac 	ldr.w	r5, [r2, #428]	; 0x1ac
     ac6:	f8c4 31c0 	str.w	r3, [r4, #448]	; 0x1c0
     aca:	1c6b      	adds	r3, r5, #1
     acc:	d05b      	beq.n	b86 <Context::UpdateIcons()+0x1ca>
     ace:	eb04 0385 	add.w	r3, r4, r5, lsl #2
     ad2:	6902      	ldr	r2, [r0, #16]
     ad4:	f8d4 1194 	ldr.w	r1, [r4, #404]	; 0x194
     ad8:	f8d3 81a0 	ldr.w	r8, [r3, #416]	; 0x1a0
     adc:	6820      	ldr	r0, [r4, #0]
     ade:	4643      	mov	r3, r8
     ae0:	f7ff fc72 	bl	3c8 <RequestIcon(API*, unsigned long, unsigned long, unsigned char*)>
     ae4:	f8c4 018c 	str.w	r0, [r4, #396]	; 0x18c
     ae8:	2800      	cmp	r0, #0
     aea:	d06c      	beq.n	bc6 <Context::UpdateIcons()+0x20a>
     aec:	f8d4 31fc 	ldr.w	r3, [r4, #508]	; 0x1fc
     af0:	f04f 0201 	mov.w	r2, #1
     af4:	4433      	add	r3, r6
     af6:	f8c3 8038 	str.w	r8, [r3, #56]	; 0x38
     afa:	f8d4 31fc 	ldr.w	r3, [r4, #508]	; 0x1fc
     afe:	4433      	add	r3, r6
     b00:	63dd      	str	r5, [r3, #60]	; 0x3c
     b02:	f8d4 31fc 	ldr.w	r3, [r4, #508]	; 0x1fc
     b06:	4433      	add	r3, r6
     b08:	f883 2040 	strb.w	r2, [r3, #64]	; 0x40
     b0c:	f8d4 31fc 	ldr.w	r3, [r4, #508]	; 0x1fc
     b10:	f8d4 218c 	ldr.w	r2, [r4, #396]	; 0x18c
     b14:	4433      	add	r3, r6
     b16:	645a      	str	r2, [r3, #68]	; 0x44
     b18:	e9d4 307e 	ldrd	r3, r0, [r4, #504]	; 0x1f8
     b1c:	3301      	adds	r3, #1
     b1e:	4430      	add	r0, r6
     b20:	f8c4 31f8 	str.w	r3, [r4, #504]	; 0x1f8
     b24:	f890 2040 	ldrb.w	r2, [r0, #64]	; 0x40
     b28:	2a01      	cmp	r2, #1
     b2a:	d18c      	bne.n	a46 <Context::UpdateIcons()+0x8a>
     b2c:	6c41      	ldr	r1, [r0, #68]	; 0x44
     b2e:	f891 3094 	ldrb.w	r3, [r1, #148]	; 0x94
     b32:	2b00      	cmp	r3, #0
     b34:	d087      	beq.n	a46 <Context::UpdateIcons()+0x8a>
     b36:	f891 3095 	ldrb.w	r3, [r1, #149]	; 0x95
     b3a:	b35b      	cbz	r3, b94 <Context::UpdateIcons()+0x1d8>
     b3c:	2302      	movs	r3, #2
     b3e:	f880 3040 	strb.w	r3, [r0, #64]	; 0x40
     b42:	6820      	ldr	r0, [r4, #0]
     b44:	3701      	adds	r7, #1
     b46:	6803      	ldr	r3, [r0, #0]
     b48:	6a1b      	ldr	r3, [r3, #32]
     b4a:	4798      	blx	r3
     b4c:	f8d4 31fc 	ldr.w	r3, [r4, #508]	; 0x1fc
     b50:	2200      	movs	r2, #0
     b52:	4433      	add	r3, r6
     b54:	3648      	adds	r6, #72	; 0x48
     b56:	645a      	str	r2, [r3, #68]	; 0x44
     b58:	f8d4 31f8 	ldr.w	r3, [r4, #504]	; 0x1f8
     b5c:	3b01      	subs	r3, #1
     b5e:	f8c4 31f8 	str.w	r3, [r4, #504]	; 0x1f8
     b62:	f8d4 3200 	ldr.w	r3, [r4, #512]	; 0x200
     b66:	42bb      	cmp	r3, r7
     b68:	f63f af74 	bhi.w	a54 <Context::UpdateIcons()+0x98>
     b6c:	e8bd 8ff8 	ldmia.w	sp!, {r3, r4, r5, r6, r7, r8, r9, sl, fp, pc}
     b70:	2b00      	cmp	r3, #0
     b72:	d19d      	bne.n	ab0 <Context::UpdateIcons()+0xf4>
     b74:	e765      	b.n	a42 <Context::UpdateIcons()+0x86>
     b76:	fb08 f301 	mul.w	r3, r8, r1
     b7a:	e791      	b.n	aa0 <Context::UpdateIcons()+0xe4>
     b7c:	4693      	mov	fp, r2
     b7e:	4694      	mov	ip, r2
     b80:	f04f 0800 	mov.w	r8, #0
     b84:	e784      	b.n	a90 <Context::UpdateIcons()+0xd4>
     b86:	f04f 0301 	mov.w	r3, #1
     b8a:	f884 31f4 	strb.w	r3, [r4, #500]	; 0x1f4
     b8e:	f890 2040 	ldrb.w	r2, [r0, #64]	; 0x40
     b92:	e756      	b.n	a42 <Context::UpdateIcons()+0x86>
     b94:	f8d4 21c0 	ldr.w	r2, [r4, #448]	; 0x1c0
     b98:	f04f 0c03 	mov.w	ip, #3
     b9c:	6bc5      	ldr	r5, [r0, #60]	; 0x3c
     b9e:	eb04 0e82 	add.w	lr, r4, r2, lsl #2
     ba2:	3201      	adds	r2, #1
     ba4:	f8ce 51b0 	str.w	r5, [lr, #432]	; 0x1b0
     ba8:	f8c4 21c0 	str.w	r2, [r4, #448]	; 0x1c0
     bac:	f04f 32ff 	mov.w	r2, #4294967295	; 0xffffffff
     bb0:	6383      	str	r3, [r0, #56]	; 0x38
     bb2:	63c2      	str	r2, [r0, #60]	; 0x3c
     bb4:	f880 3040 	strb.w	r3, [r0, #64]	; 0x40
     bb8:	6443      	str	r3, [r0, #68]	; 0x44
     bba:	f8d4 31fc 	ldr.w	r3, [r4, #508]	; 0x1fc
     bbe:	4433      	add	r3, r6
     bc0:	f883 c040 	strb.w	ip, [r3, #64]	; 0x40
     bc4:	e7bd      	b.n	b42 <Context::UpdateIcons()+0x186>
     bc6:	f8d4 31c0 	ldr.w	r3, [r4, #448]	; 0x1c0
     bca:	eb04 0283 	add.w	r2, r4, r3, lsl #2
     bce:	3301      	adds	r3, #1
     bd0:	f8c2 51b0 	str.w	r5, [r2, #432]	; 0x1b0
     bd4:	f8d4 01fc 	ldr.w	r0, [r4, #508]	; 0x1fc
     bd8:	f8c4 31c0 	str.w	r3, [r4, #448]	; 0x1c0
     bdc:	4430      	add	r0, r6
     bde:	f890 2040 	ldrb.w	r2, [r0, #64]	; 0x40
     be2:	e72e      	b.n	a42 <Context::UpdateIcons()+0x86>

00000be4 <Context::ProcessLoadedAsset()>:
     be4:	e92d 47f0 	stmdb	sp!, {r4, r5, r6, r7, r8, r9, sl, lr}
     be8:	f8d0 118c 	ldr.w	r1, [r0, #396]	; 0x18c
     bec:	4604      	mov	r4, r0
     bee:	6800      	ldr	r0, [r0, #0]
     bf0:	b0c2      	sub	sp, #264	; 0x108
     bf2:	f891 5095 	ldrb.w	r5, [r1, #149]	; 0x95
     bf6:	6803      	ldr	r3, [r0, #0]
     bf8:	2d00      	cmp	r5, #0
     bfa:	f000 808b 	beq.w	d14 <Context::ProcessLoadedAsset()+0x130>
     bfe:	f8d1 808c 	ldr.w	r8, [r1, #140]	; 0x8c
     c02:	2500      	movs	r5, #0
     c04:	f8d3 30ac 	ldr.w	r3, [r3, #172]	; 0xac
     c08:	4641      	mov	r1, r8
     c0a:	4798      	blx	r3
     c0c:	f8d4 318c 	ldr.w	r3, [r4, #396]	; 0x18c
     c10:	4602      	mov	r2, r0
     c12:	6820      	ldr	r0, [r4, #0]
     c14:	f8d3 6098 	ldr.w	r6, [r3, #152]	; 0x98
     c18:	4619      	mov	r1, r3
     c1a:	f8d0 c000 	ldr.w	ip, [r0]
     c1e:	1c57      	adds	r7, r2, #1
     c20:	3e01      	subs	r6, #1
     c22:	f8d3 908c 	ldr.w	r9, [r3, #140]	; 0x8c
     c26:	f8dc 3020 	ldr.w	r3, [ip, #32]
     c2a:	1ab6      	subs	r6, r6, r2
     c2c:	4798      	blx	r3
     c2e:	6820      	ldr	r0, [r4, #0]
     c30:	44b9      	add	r9, r7
     c32:	f8c4 518c 	str.w	r5, [r4, #396]	; 0x18c
     c36:	4633      	mov	r3, r6
     c38:	6807      	ldr	r7, [r0, #0]
     c3a:	4642      	mov	r2, r8
     c3c:	4949      	ldr	r1, [pc, #292]	; (d64 <Context::ProcessLoadedAsset()+0x180>)
     c3e:	f8d7 70b8 	ldr.w	r7, [r7, #184]	; 0xb8
     c42:	4479      	add	r1, pc
     c44:	47b8      	blx	r7
     c46:	6820      	ldr	r0, [r4, #0]
     c48:	af02      	add	r7, sp, #8
     c4a:	4a47      	ldr	r2, [pc, #284]	; (d68 <Context::ProcessLoadedAsset()+0x184>)
     c4c:	f8d0 c000 	ldr.w	ip, [r0]
     c50:	4643      	mov	r3, r8
     c52:	4639      	mov	r1, r7
     c54:	447a      	add	r2, pc
     c56:	f8dc a0b4 	ldr.w	sl, [ip, #180]	; 0xb4
     c5a:	47d0      	blx	sl
     c5c:	6820      	ldr	r0, [r4, #0]
     c5e:	4a43      	ldr	r2, [pc, #268]	; (d6c <Context::ProcessLoadedAsset()+0x188>)
     c60:	4639      	mov	r1, r7
     c62:	6803      	ldr	r3, [r0, #0]
     c64:	447a      	add	r2, pc
     c66:	f8d3 3090 	ldr.w	r3, [r3, #144]	; 0x90
     c6a:	4798      	blx	r3
     c6c:	4607      	mov	r7, r0
     c6e:	6820      	ldr	r0, [r4, #0]
     c70:	2f00      	cmp	r7, #0
     c72:	d072      	beq.n	d5a <Context::ProcessLoadedAsset()+0x176>
     c74:	f8d0 c000 	ldr.w	ip, [r0]
     c78:	4649      	mov	r1, r9
     c7a:	463b      	mov	r3, r7
     c7c:	4632      	mov	r2, r6
     c7e:	f8dc 9098 	ldr.w	r9, [ip, #152]	; 0x98
     c82:	47c8      	blx	r9
     c84:	42b0      	cmp	r0, r6
     c86:	6820      	ldr	r0, [r4, #0]
     c88:	d010      	beq.n	cac <Context::ProcessLoadedAsset()+0xc8>
     c8a:	4939      	ldr	r1, [pc, #228]	; (d70 <Context::ProcessLoadedAsset()+0x18c>)
     c8c:	4642      	mov	r2, r8
     c8e:	4479      	add	r1, pc
     c90:	6803      	ldr	r3, [r0, #0]
     c92:	f8d3 30b8 	ldr.w	r3, [r3, #184]	; 0xb8
     c96:	4798      	blx	r3
     c98:	6820      	ldr	r0, [r4, #0]
     c9a:	4639      	mov	r1, r7
     c9c:	6803      	ldr	r3, [r0, #0]
     c9e:	f8d3 30a0 	ldr.w	r3, [r3, #160]	; 0xa0
     ca2:	4798      	blx	r3
     ca4:	4628      	mov	r0, r5
     ca6:	b042      	add	sp, #264	; 0x108
     ca8:	e8bd 87f0 	ldmia.w	sp!, {r4, r5, r6, r7, r8, r9, sl, pc}
     cac:	6803      	ldr	r3, [r0, #0]
     cae:	4639      	mov	r1, r7
     cb0:	f8d3 30a0 	ldr.w	r3, [r3, #160]	; 0xa0
     cb4:	4798      	blx	r3
     cb6:	f8d4 6208 	ldr.w	r6, [r4, #520]	; 0x208
     cba:	f8d4 21fc 	ldr.w	r2, [r4, #508]	; 0x1fc
     cbe:	f8d4 320c 	ldr.w	r3, [r4, #524]	; 0x20c
     cc2:	eb06 06c6 	add.w	r6, r6, r6, lsl #3
     cc6:	3301      	adds	r3, #1
     cc8:	eb02 06c6 	add.w	r6, r2, r6, lsl #3
     ccc:	f8c4 320c 	str.w	r3, [r4, #524]	; 0x20c
     cd0:	6972      	ldr	r2, [r6, #20]
     cd2:	4293      	cmp	r3, r2
     cd4:	d026      	beq.n	d24 <Context::ProcessLoadedAsset()+0x140>
     cd6:	6932      	ldr	r2, [r6, #16]
     cd8:	e9d4 1065 	ldrd	r1, r0, [r4, #404]	; 0x194
     cdc:	9000      	str	r0, [sp, #0]
     cde:	6820      	ldr	r0, [r4, #0]
     ce0:	f7ff fbb0 	bl	444 <RequestGameAsset(API*, unsigned long, unsigned long, unsigned long, unsigned char*)>
     ce4:	f8c4 018c 	str.w	r0, [r4, #396]	; 0x18c
     ce8:	b168      	cbz	r0, d06 <Context::ProcessLoadedAsset()+0x122>
     cea:	6820      	ldr	r0, [r4, #0]
     cec:	6971      	ldr	r1, [r6, #20]
     cee:	6805      	ldr	r5, [r0, #0]
     cf0:	6932      	ldr	r2, [r6, #16]
     cf2:	f8d4 320c 	ldr.w	r3, [r4, #524]	; 0x20c
     cf6:	9100      	str	r1, [sp, #0]
     cf8:	491e      	ldr	r1, [pc, #120]	; (d74 <Context::ProcessLoadedAsset()+0x190>)
     cfa:	f8d5 50b8 	ldr.w	r5, [r5, #184]	; 0xb8
     cfe:	4479      	add	r1, pc
     d00:	47a8      	blx	r5
     d02:	f8d4 018c 	ldr.w	r0, [r4, #396]	; 0x18c
     d06:	1c05      	adds	r5, r0, #0
     d08:	bf18      	it	ne
     d0a:	2501      	movne	r5, #1
     d0c:	4628      	mov	r0, r5
     d0e:	b042      	add	sp, #264	; 0x108
     d10:	e8bd 87f0 	ldmia.w	sp!, {r4, r5, r6, r7, r8, r9, sl, pc}
     d14:	6a1b      	ldr	r3, [r3, #32]
     d16:	4798      	blx	r3
     d18:	4628      	mov	r0, r5
     d1a:	f8c4 518c 	str.w	r5, [r4, #396]	; 0x18c
     d1e:	b042      	add	sp, #264	; 0x108
     d20:	e8bd 87f0 	ldmia.w	sp!, {r4, r5, r6, r7, r8, r9, sl, pc}
     d24:	f8d4 3204 	ldr.w	r3, [r4, #516]	; 0x204
     d28:	6932      	ldr	r2, [r6, #16]
     d2a:	f8d4 1194 	ldr.w	r1, [r4, #404]	; 0x194
     d2e:	6820      	ldr	r0, [r4, #0]
     d30:	f7ff fbc6 	bl	4c0 <RequestGameCode(API*, unsigned long, unsigned long, unsigned char*)>
     d34:	f8c4 018c 	str.w	r0, [r4, #396]	; 0x18c
     d38:	2800      	cmp	r0, #0
     d3a:	d0e4      	beq.n	d06 <Context::ProcessLoadedAsset()+0x122>
     d3c:	6823      	ldr	r3, [r4, #0]
     d3e:	2206      	movs	r2, #6
     d40:	490d      	ldr	r1, [pc, #52]	; (d78 <Context::ProcessLoadedAsset()+0x194>)
     d42:	f884 2190 	strb.w	r2, [r4, #400]	; 0x190
     d46:	4618      	mov	r0, r3
     d48:	681b      	ldr	r3, [r3, #0]
     d4a:	4479      	add	r1, pc
     d4c:	6932      	ldr	r2, [r6, #16]
     d4e:	f8d3 30b8 	ldr.w	r3, [r3, #184]	; 0xb8
     d52:	4798      	blx	r3
     d54:	f8d4 018c 	ldr.w	r0, [r4, #396]	; 0x18c
     d58:	e7d5      	b.n	d06 <Context::ProcessLoadedAsset()+0x122>
     d5a:	4908      	ldr	r1, [pc, #32]	; (d7c <Context::ProcessLoadedAsset()+0x198>)
     d5c:	4642      	mov	r2, r8
     d5e:	463d      	mov	r5, r7
     d60:	4479      	add	r1, pc
     d62:	e795      	b.n	c90 <Context::ProcessLoadedAsset()+0xac>
     d64:	000019e6 	.word	0x000019e6
     d68:	000019f0 	.word	0x000019f0
     d6c:	000019e8 	.word	0x000019e8
     d70:	000019c2 	.word	0x000019c2
     d74:	000018c2 	.word	0x000018c2
     d78:	00001896 	.word	0x00001896
     d7c:	000018f0 	.word	0x000018f0

00000d80 <Context::Render(float)>:
     d80:	e92d 4ff0 	stmdb	sp!, {r4, r5, r6, r7, r8, r9, sl, fp, lr}
     d84:	f890 5190 	ldrb.w	r5, [r0, #400]	; 0x190
     d88:	b0c9      	sub	sp, #292	; 0x124
     d8a:	4604      	mov	r4, r0
     d8c:	460f      	mov	r7, r1
     d8e:	1f6b      	subs	r3, r5, #5
     d90:	2b01      	cmp	r3, #1
     d92:	f240 80a1 	bls.w	ed8 <Context::Render(float)+0x158>
     d96:	2d08      	cmp	r5, #8
     d98:	f000 80be 	beq.w	f18 <Context::Render(float)+0x198>
     d9c:	6800      	ldr	r0, [r0, #0]
     d9e:	f504 719e 	add.w	r1, r4, #316	; 0x13c
     da2:	f8d4 21c4 	ldr.w	r2, [r4, #452]	; 0x1c4
     da6:	f44f 63f0 	mov.w	r3, #1920	; 0x780
     daa:	6805      	ldr	r5, [r0, #0]
     dac:	f8d5 5080 	ldr.w	r5, [r5, #128]	; 0x80
     db0:	47a8      	blx	r5
     db2:	6820      	ldr	r0, [r4, #0]
     db4:	6803      	ldr	r3, [r0, #0]
     db6:	691b      	ldr	r3, [r3, #16]
     db8:	4798      	blx	r3
     dba:	f8d4 c000 	ldr.w	ip, [r4]
     dbe:	f8d4 51d0 	ldr.w	r5, [r4, #464]	; 0x1d0
     dc2:	23a0      	movs	r3, #160	; 0xa0
     dc4:	f8dc 6000 	ldr.w	r6, [ip]
     dc8:	f504 71a6 	add.w	r1, r4, #332	; 0x14c
     dcc:	f8d4 21d4 	ldr.w	r2, [r4, #468]	; 0x1d4
     dd0:	2801      	cmp	r0, #1
     dd2:	bf18      	it	ne
     dd4:	462a      	movne	r2, r5
     dd6:	4660      	mov	r0, ip
     dd8:	f8d6 5084 	ldr.w	r5, [r6, #132]	; 0x84
     ddc:	47a8      	blx	r5
     dde:	6820      	ldr	r0, [r4, #0]
     de0:	2380      	movs	r3, #128	; 0x80
     de2:	f8d4 21d8 	ldr.w	r2, [r4, #472]	; 0x1d8
     de6:	6805      	ldr	r5, [r0, #0]
     de8:	f504 71b6 	add.w	r1, r4, #364	; 0x16c
     dec:	f8d5 5084 	ldr.w	r5, [r5, #132]	; 0x84
     df0:	47a8      	blx	r5
     df2:	6820      	ldr	r0, [r4, #0]
     df4:	2380      	movs	r3, #128	; 0x80
     df6:	f8d4 21dc 	ldr.w	r2, [r4, #476]	; 0x1dc
     dfa:	6805      	ldr	r5, [r0, #0]
     dfc:	f504 71be 	add.w	r1, r4, #380	; 0x17c
     e00:	f8d5 5084 	ldr.w	r5, [r5, #132]	; 0x84
     e04:	47a8      	blx	r5
     e06:	f894 3190 	ldrb.w	r3, [r4, #400]	; 0x190
     e0a:	2b00      	cmp	r3, #0
     e0c:	d159      	bne.n	ec2 <Context::Render(float)+0x142>
     e0e:	f8d4 31f8 	ldr.w	r3, [r4, #504]	; 0x1f8
     e12:	2b00      	cmp	r3, #0
     e14:	d155      	bne.n	ec2 <Context::Render(float)+0x142>
     e16:	f8d4 3200 	ldr.w	r3, [r4, #512]	; 0x200
     e1a:	b1a3      	cbz	r3, e46 <Context::Render(float)+0xc6>
     e1c:	f504 7882 	add.w	r8, r4, #260	; 0x104
     e20:	f504 76ce 	add.w	r6, r4, #412	; 0x19c
     e24:	2500      	movs	r5, #0
     e26:	eb05 00c5 	add.w	r0, r5, r5, lsl #3
     e2a:	f8d4 31fc 	ldr.w	r3, [r4, #508]	; 0x1fc
     e2e:	4632      	mov	r2, r6
     e30:	4641      	mov	r1, r8
     e32:	eb03 03c0 	add.w	r3, r3, r0, lsl #3
     e36:	6820      	ldr	r0, [r4, #0]
     e38:	f7ff f93a 	bl	b0 <DrawIcon(API*, Rect const&, IconsManager const&, GameDesc const&)>
     e3c:	3501      	adds	r5, #1
     e3e:	f8d4 3200 	ldr.w	r3, [r4, #512]	; 0x200
     e42:	42ab      	cmp	r3, r5
     e44:	d8ef      	bhi.n	e26 <Context::Render(float)+0xa6>
     e46:	6820      	ldr	r0, [r4, #0]
     e48:	2101      	movs	r1, #1
     e4a:	ad08      	add	r5, sp, #32
     e4c:	2603      	movs	r6, #3
     e4e:	6803      	ldr	r3, [r0, #0]
     e50:	6edb      	ldr	r3, [r3, #108]	; 0x6c
     e52:	4798      	blx	r3
     e54:	6820      	ldr	r0, [r4, #0]
     e56:	f04f 31ff 	mov.w	r1, #4294967295	; 0xffffffff
     e5a:	6803      	ldr	r3, [r0, #0]
     e5c:	6e9b      	ldr	r3, [r3, #104]	; 0x68
     e5e:	4798      	blx	r3
     e60:	4623      	mov	r3, r4
     e62:	4abe      	ldr	r2, [pc, #760]	; (115c <Context::Render(float)+0x3dc>)
     e64:	4629      	mov	r1, r5
     e66:	f853 0b04 	ldr.w	r0, [r3], #4
     e6a:	447a      	add	r2, pc
     e6c:	f8d0 c000 	ldr.w	ip, [r0]
     e70:	f8dc 80b4 	ldr.w	r8, [ip, #180]	; 0xb4
     e74:	47c0      	blx	r8
     e76:	6820      	ldr	r0, [r4, #0]
     e78:	462b      	mov	r3, r5
     e7a:	22f2      	movs	r2, #242	; 0xf2
     e7c:	f8d0 c000 	ldr.w	ip, [r0]
     e80:	2108      	movs	r1, #8
     e82:	9600      	str	r6, [sp, #0]
     e84:	f8dc 8074 	ldr.w	r8, [ip, #116]	; 0x74
     e88:	47c0      	blx	r8
     e8a:	6820      	ldr	r0, [r4, #0]
     e8c:	4bb4      	ldr	r3, [pc, #720]	; (1160 <Context::Render(float)+0x3e0>)
     e8e:	4629      	mov	r1, r5
     e90:	f8d0 c000 	ldr.w	ip, [r0]
     e94:	4ab3      	ldr	r2, [pc, #716]	; (1164 <Context::Render(float)+0x3e4>)
     e96:	447b      	add	r3, pc
     e98:	f8dc 80b4 	ldr.w	r8, [ip, #180]	; 0xb4
     e9c:	447a      	add	r2, pc
     e9e:	47c0      	blx	r8
     ea0:	6820      	ldr	r0, [r4, #0]
     ea2:	462b      	mov	r3, r5
     ea4:	f44f 7280 	mov.w	r2, #256	; 0x100
     ea8:	6805      	ldr	r5, [r0, #0]
     eaa:	2108      	movs	r1, #8
     eac:	9600      	str	r6, [sp, #0]
     eae:	6f6d      	ldr	r5, [r5, #116]	; 0x74
     eb0:	47a8      	blx	r5
     eb2:	4639      	mov	r1, r7
     eb4:	f504 7009 	add.w	r0, r4, #548	; 0x224
     eb8:	f001 f872 	bl	1fa0 <NotificationsCtx::Render(float)>
     ebc:	b049      	add	sp, #292	; 0x124
     ebe:	e8bd 8ff0 	ldmia.w	sp!, {r4, r5, r6, r7, r8, r9, sl, fp, pc}
     ec2:	6820      	ldr	r0, [r4, #0]
     ec4:	23a0      	movs	r3, #160	; 0xa0
     ec6:	f8d4 21cc 	ldr.w	r2, [r4, #460]	; 0x1cc
     eca:	f504 71ae 	add.w	r1, r4, #348	; 0x15c
     ece:	6805      	ldr	r5, [r0, #0]
     ed0:	f8d5 5084 	ldr.w	r5, [r5, #132]	; 0x84
     ed4:	47a8      	blx	r5
     ed6:	e79e      	b.n	e16 <Context::Render(float)+0x96>
     ed8:	6800      	ldr	r0, [r0, #0]
     eda:	2100      	movs	r1, #0
     edc:	6803      	ldr	r3, [r0, #0]
     ede:	6ddb      	ldr	r3, [r3, #92]	; 0x5c
     ee0:	4798      	blx	r3
     ee2:	6820      	ldr	r0, [r4, #0]
     ee4:	2100      	movs	r1, #0
     ee6:	6803      	ldr	r3, [r0, #0]
     ee8:	6e5b      	ldr	r3, [r3, #100]	; 0x64
     eea:	4798      	blx	r3
     eec:	6820      	ldr	r0, [r4, #0]
     eee:	f04f 31ff 	mov.w	r1, #4294967295	; 0xffffffff
     ef2:	6803      	ldr	r3, [r0, #0]
     ef4:	6e9b      	ldr	r3, [r3, #104]	; 0x68
     ef6:	4798      	blx	r3
     ef8:	6820      	ldr	r0, [r4, #0]
     efa:	2104      	movs	r1, #4
     efc:	6803      	ldr	r3, [r0, #0]
     efe:	6edb      	ldr	r3, [r3, #108]	; 0x6c
     f00:	4798      	blx	r3
     f02:	6820      	ldr	r0, [r4, #0]
     f04:	2201      	movs	r2, #1
     f06:	4b98      	ldr	r3, [pc, #608]	; (1168 <Context::Render(float)+0x3e8>)
     f08:	6801      	ldr	r1, [r0, #0]
     f0a:	447b      	add	r3, pc
     f0c:	9200      	str	r2, [sp, #0]
     f0e:	2264      	movs	r2, #100	; 0x64
     f10:	6f4d      	ldr	r5, [r1, #116]	; 0x74
     f12:	2100      	movs	r1, #0
     f14:	47a8      	blx	r5
     f16:	e7cc      	b.n	eb2 <Context::Render(float)+0x132>
     f18:	f8d0 035c 	ldr.w	r0, [r0, #860]	; 0x35c
     f1c:	f44f 63f0 	mov.w	r3, #1920	; 0x780
     f20:	f8d4 2360 	ldr.w	r2, [r4, #864]	; 0x360
     f24:	f504 715a 	add.w	r1, r4, #872	; 0x368
     f28:	6806      	ldr	r6, [r0, #0]
     f2a:	f10d 0808 	add.w	r8, sp, #8
     f2e:	6a92      	ldr	r2, [r2, #40]	; 0x28
     f30:	f8d6 6080 	ldr.w	r6, [r6, #128]	; 0x80
     f34:	47b0      	blx	r6
     f36:	f8d4 035c 	ldr.w	r0, [r4, #860]	; 0x35c
     f3a:	2104      	movs	r1, #4
     f3c:	6803      	ldr	r3, [r0, #0]
     f3e:	6edb      	ldr	r3, [r3, #108]	; 0x6c
     f40:	4798      	blx	r3
     f42:	f8d4 035c 	ldr.w	r0, [r4, #860]	; 0x35c
     f46:	f04f 31ff 	mov.w	r1, #4294967295	; 0xffffffff
     f4a:	6803      	ldr	r3, [r0, #0]
     f4c:	6e9b      	ldr	r3, [r3, #104]	; 0x68
     f4e:	4798      	blx	r3
     f50:	f8d4 035c 	ldr.w	r0, [r4, #860]	; 0x35c
     f54:	4642      	mov	r2, r8
     f56:	2104      	movs	r1, #4
     f58:	6803      	ldr	r3, [r0, #0]
     f5a:	6f1b      	ldr	r3, [r3, #112]	; 0x70
     f5c:	4798      	blx	r3
     f5e:	f894 6364 	ldrb.w	r6, [r4, #868]	; 0x364
     f62:	2e01      	cmp	r6, #1
     f64:	d015      	beq.n	f92 <Context::Render(float)+0x212>
     f66:	2e02      	cmp	r6, #2
     f68:	f000 80e5 	beq.w	1136 <Context::Render(float)+0x3b6>
     f6c:	2e03      	cmp	r6, #3
     f6e:	d1a0      	bne.n	eb2 <Context::Render(float)+0x132>
     f70:	f8d4 035c 	ldr.w	r0, [r4, #860]	; 0x35c
     f74:	f894 33b8 	ldrb.w	r3, [r4, #952]	; 0x3b8
     f78:	6802      	ldr	r2, [r0, #0]
     f7a:	6f55      	ldr	r5, [r2, #116]	; 0x74
     f7c:	2b00      	cmp	r3, #0
     f7e:	f040 80e7 	bne.w	1150 <Context::Render(float)+0x3d0>
     f82:	4b7a      	ldr	r3, [pc, #488]	; (116c <Context::Render(float)+0x3ec>)
     f84:	447b      	add	r3, pc
     f86:	2101      	movs	r1, #1
     f88:	2282      	movs	r2, #130	; 0x82
     f8a:	9100      	str	r1, [sp, #0]
     f8c:	2100      	movs	r1, #0
     f8e:	47a8      	blx	r5
     f90:	e78f      	b.n	eb2 <Context::Render(float)+0x132>
     f92:	f8d4 035c 	ldr.w	r0, [r4, #860]	; 0x35c
     f96:	2102      	movs	r1, #2
     f98:	6803      	ldr	r3, [r0, #0]
     f9a:	6edb      	ldr	r3, [r3, #108]	; 0x6c
     f9c:	4798      	blx	r3
     f9e:	f8d4 035c 	ldr.w	r0, [r4, #860]	; 0x35c
     fa2:	2203      	movs	r2, #3
     fa4:	4b72      	ldr	r3, [pc, #456]	; (1170 <Context::Render(float)+0x3f0>)
     fa6:	6801      	ldr	r1, [r0, #0]
     fa8:	447b      	add	r3, pc
     faa:	9200      	str	r2, [sp, #0]
     fac:	462a      	mov	r2, r5
     fae:	f8d1 9074 	ldr.w	r9, [r1, #116]	; 0x74
     fb2:	4629      	mov	r1, r5
     fb4:	47c8      	blx	r9
     fb6:	f8d4 035c 	ldr.w	r0, [r4, #860]	; 0x35c
     fba:	f04f 0e1a 	mov.w	lr, #26
     fbe:	f04f 0cb4 	mov.w	ip, #180	; 0xb4
     fc2:	6802      	ldr	r2, [r0, #0]
     fc4:	ab04      	add	r3, sp, #16
     fc6:	9504      	str	r5, [sp, #16]
     fc8:	4619      	mov	r1, r3
     fca:	6fd5      	ldr	r5, [r2, #124]	; 0x7c
     fcc:	9607      	str	r6, [sp, #28]
     fce:	f04f 32ff 	mov.w	r2, #4294967295	; 0xffffffff
     fd2:	2602      	movs	r6, #2
     fd4:	e9cd ec05 	strd	lr, ip, [sp, #20]
     fd8:	47a8      	blx	r5
     fda:	f8d4 035c 	ldr.w	r0, [r4, #860]	; 0x35c
     fde:	2104      	movs	r1, #4
     fe0:	6803      	ldr	r3, [r0, #0]
     fe2:	6edb      	ldr	r3, [r3, #108]	; 0x6c
     fe4:	4798      	blx	r3
     fe6:	f8d4 23ac 	ldr.w	r2, [r4, #940]	; 0x3ac
     fea:	f8d8 3000 	ldr.w	r3, [r8]
     fee:	a908      	add	r1, sp, #32
     ff0:	eddf 7a59 	vldr	s15, [pc, #356]	; 1158 <Context::Render(float)+0x3d8>
     ff4:	2032      	movs	r0, #50	; 0x32
     ff6:	fb03 f302 	mul.w	r3, r3, r2
     ffa:	ed94 7ae5 	vldr	s14, [r4, #916]	; 0x394
     ffe:	6048      	str	r0, [r1, #4]
    1000:	f5c3 75f0 	rsb	r5, r3, #480	; 0x1e0
    1004:	eeb4 7ae7 	vcmpe.f32	s14, s15
    1008:	f8d8 0004 	ldr.w	r0, [r8, #4]
    100c:	086d      	lsrs	r5, r5, #1
    100e:	608e      	str	r6, [r1, #8]
    1010:	eef1 fa10 	vmrs	APSR_nzcv, fpscr
    1014:	60c8      	str	r0, [r1, #12]
    1016:	442b      	add	r3, r5
    1018:	600b      	str	r3, [r1, #0]
    101a:	d508      	bpl.n	102e <Context::Render(float)+0x2ae>
    101c:	f8d4 035c 	ldr.w	r0, [r4, #860]	; 0x35c
    1020:	f04f 32ff 	mov.w	r2, #4294967295	; 0xffffffff
    1024:	6803      	ldr	r3, [r0, #0]
    1026:	6fdb      	ldr	r3, [r3, #124]	; 0x7c
    1028:	4798      	blx	r3
    102a:	f8d4 23ac 	ldr.w	r2, [r4, #940]	; 0x3ac
    102e:	b152      	cbz	r2, 1046 <Context::Render(float)+0x2c6>
    1030:	f8d4 035c 	ldr.w	r0, [r4, #860]	; 0x35c
    1034:	2203      	movs	r2, #3
    1036:	b2a9      	uxth	r1, r5
    1038:	f504 7366 	add.w	r3, r4, #920	; 0x398
    103c:	6805      	ldr	r5, [r0, #0]
    103e:	9200      	str	r2, [sp, #0]
    1040:	2232      	movs	r2, #50	; 0x32
    1042:	6f6d      	ldr	r5, [r5, #116]	; 0x74
    1044:	47a8      	blx	r5
    1046:	f8d8 2000 	ldr.w	r2, [r8]
    104a:	2600      	movs	r6, #0
    104c:	f8d8 3004 	ldr.w	r3, [r8, #4]
    1050:	f1c2 0a28 	rsb	sl, r2, #40	; 0x28
    1054:	46b0      	mov	r8, r6
    1056:	f1c3 0928 	rsb	r9, r3, #40	; 0x28
    105a:	ea4f 0a5a 	mov.w	sl, sl, lsr #1
    105e:	ea4f 0959 	mov.w	r9, r9, lsr #1
    1062:	e024      	b.n	10ae <Context::Render(float)+0x32e>
    1064:	f8d4 035c 	ldr.w	r0, [r4, #860]	; 0x35c
    1068:	23a0      	movs	r3, #160	; 0xa0
    106a:	f8d4 2360 	ldr.w	r2, [r4, #864]	; 0x360
    106e:	1d29      	adds	r1, r5, #4
    1070:	f8d0 c000 	ldr.w	ip, [r0]
    1074:	6c52      	ldr	r2, [r2, #68]	; 0x44
    1076:	f8dc b084 	ldr.w	fp, [ip, #132]	; 0x84
    107a:	47d8      	blx	fp
    107c:	f894 338c 	ldrb.w	r3, [r4, #908]	; 0x38c
    1080:	b383      	cbz	r3, 10e4 <Context::Render(float)+0x364>
    1082:	7d6b      	ldrb	r3, [r5, #21]
    1084:	f8d4 235c 	ldr.w	r2, [r4, #860]	; 0x35c
    1088:	6869      	ldr	r1, [r5, #4]
    108a:	f8d2 c000 	ldr.w	ip, [r2]
    108e:	4610      	mov	r0, r2
    1090:	68aa      	ldr	r2, [r5, #8]
    1092:	4451      	add	r1, sl
    1094:	f8dc b078 	ldr.w	fp, [ip, #120]	; 0x78
    1098:	444a      	add	r2, r9
    109a:	b289      	uxth	r1, r1
    109c:	b292      	uxth	r2, r2
    109e:	47d8      	blx	fp
    10a0:	3618      	adds	r6, #24
    10a2:	f885 8016 	strb.w	r8, [r5, #22]
    10a6:	f5b6 7f70 	cmp.w	r6, #960	; 0x3c0
    10aa:	f43f af02 	beq.w	eb2 <Context::Render(float)+0x132>
    10ae:	f8d4 5390 	ldr.w	r5, [r4, #912]	; 0x390
    10b2:	5dab      	ldrb	r3, [r5, r6]
    10b4:	4435      	add	r5, r6
    10b6:	2b00      	cmp	r3, #0
    10b8:	d0d4      	beq.n	1064 <Context::Render(float)+0x2e4>
    10ba:	2b01      	cmp	r3, #1
    10bc:	d014      	beq.n	10e8 <Context::Render(float)+0x368>
    10be:	2b02      	cmp	r3, #2
    10c0:	d01f      	beq.n	1102 <Context::Render(float)+0x382>
    10c2:	2b03      	cmp	r3, #3
    10c4:	d02a      	beq.n	111c <Context::Render(float)+0x39c>
    10c6:	2b04      	cmp	r3, #4
    10c8:	d1ea      	bne.n	10a0 <Context::Render(float)+0x320>
    10ca:	f8d4 035c 	ldr.w	r0, [r4, #860]	; 0x35c
    10ce:	2390      	movs	r3, #144	; 0x90
    10d0:	f8d4 2360 	ldr.w	r2, [r4, #864]	; 0x360
    10d4:	1d29      	adds	r1, r5, #4
    10d6:	f8d0 c000 	ldr.w	ip, [r0]
    10da:	6d52      	ldr	r2, [r2, #84]	; 0x54
    10dc:	f8dc b084 	ldr.w	fp, [ip, #132]	; 0x84
    10e0:	47d8      	blx	fp
    10e2:	e7dd      	b.n	10a0 <Context::Render(float)+0x320>
    10e4:	7d2b      	ldrb	r3, [r5, #20]
    10e6:	e7cd      	b.n	1084 <Context::Render(float)+0x304>
    10e8:	f8d4 035c 	ldr.w	r0, [r4, #860]	; 0x35c
    10ec:	23a0      	movs	r3, #160	; 0xa0
    10ee:	f8d4 2360 	ldr.w	r2, [r4, #864]	; 0x360
    10f2:	1d29      	adds	r1, r5, #4
    10f4:	f8d0 c000 	ldr.w	ip, [r0]
    10f8:	6c92      	ldr	r2, [r2, #72]	; 0x48
    10fa:	f8dc b084 	ldr.w	fp, [ip, #132]	; 0x84
    10fe:	47d8      	blx	fp
    1100:	e7ce      	b.n	10a0 <Context::Render(float)+0x320>
    1102:	f8d4 035c 	ldr.w	r0, [r4, #860]	; 0x35c
    1106:	23a0      	movs	r3, #160	; 0xa0
    1108:	f8d4 2360 	ldr.w	r2, [r4, #864]	; 0x360
    110c:	1d29      	adds	r1, r5, #4
    110e:	f8d0 c000 	ldr.w	ip, [r0]
    1112:	6cd2      	ldr	r2, [r2, #76]	; 0x4c
    1114:	f8dc b084 	ldr.w	fp, [ip, #132]	; 0x84
    1118:	47d8      	blx	fp
    111a:	e7c1      	b.n	10a0 <Context::Render(float)+0x320>
    111c:	f8d4 035c 	ldr.w	r0, [r4, #860]	; 0x35c
    1120:	2390      	movs	r3, #144	; 0x90
    1122:	f8d4 2360 	ldr.w	r2, [r4, #864]	; 0x360
    1126:	1d29      	adds	r1, r5, #4
    1128:	f8d0 c000 	ldr.w	ip, [r0]
    112c:	6d12      	ldr	r2, [r2, #80]	; 0x50
    112e:	f8dc b084 	ldr.w	fp, [ip, #132]	; 0x84
    1132:	47d8      	blx	fp
    1134:	e7b4      	b.n	10a0 <Context::Render(float)+0x320>
    1136:	f8d4 035c 	ldr.w	r0, [r4, #860]	; 0x35c
    113a:	23a0      	movs	r3, #160	; 0xa0
    113c:	f8d4 2360 	ldr.w	r2, [r4, #864]	; 0x360
    1140:	f504 715e 	add.w	r1, r4, #888	; 0x378
    1144:	6805      	ldr	r5, [r0, #0]
    1146:	6b12      	ldr	r2, [r2, #48]	; 0x30
    1148:	f8d5 5084 	ldr.w	r5, [r5, #132]	; 0x84
    114c:	47a8      	blx	r5
    114e:	e6b0      	b.n	eb2 <Context::Render(float)+0x132>
    1150:	4b08      	ldr	r3, [pc, #32]	; (1174 <Context::Render(float)+0x3f4>)
    1152:	447b      	add	r3, pc
    1154:	e717      	b.n	f86 <Context::Render(float)+0x206>
    1156:	bf00      	nop
    1158:	3ecccccd 	.word	0x3ecccccd
    115c:	000017de 	.word	0x000017de
    1160:	0000165a 	.word	0x0000165a
    1164:	000017f8 	.word	0x000017f8
    1168:	0000176e 	.word	0x0000176e
    116c:	000016ec 	.word	0x000016ec
    1170:	000016dc 	.word	0x000016dc
    1174:	0000151a 	.word	0x0000151a

00001178 <Context::Update()>:
    1178:	e92d 43f0 	stmdb	sp!, {r4, r5, r6, r7, r8, r9, lr}
    117c:	f500 7509 	add.w	r5, r0, #548	; 0x224
    1180:	4604      	mov	r4, r0
    1182:	ed2d 8b02 	vpush	{d8}
    1186:	4628      	mov	r0, r5
    1188:	b093      	sub	sp, #76	; 0x4c
    118a:	f001 f92f 	bl	23ec <NotificationsCtx::Update()>
    118e:	6820      	ldr	r0, [r4, #0]
    1190:	6803      	ldr	r3, [r0, #0]
    1192:	f8d3 30c0 	ldr.w	r3, [r3, #192]	; 0xc0
    1196:	4798      	blx	r3
    1198:	f894 3190 	ldrb.w	r3, [r4, #400]	; 0x190
    119c:	ed94 8aef 	vldr	s16, [r4, #956]	; 0x3bc
    11a0:	ee07 0a90 	vmov	s15, r0
    11a4:	2b07      	cmp	r3, #7
    11a6:	f8c4 03bc 	str.w	r0, [r4, #956]	; 0x3bc
    11aa:	ee37 8ac8 	vsub.f32	s16, s15, s16
    11ae:	d10c      	bne.n	11ca <Context::Update()+0x52>
    11b0:	6820      	ldr	r0, [r4, #0]
    11b2:	e9d4 3184 	ldrd	r3, r1, [r4, #528]	; 0x210
    11b6:	4798      	blx	r3
    11b8:	2800      	cmp	r0, #0
    11ba:	f040 80fc 	bne.w	13b6 <Context::Update()+0x23e>
    11be:	f04f 33ff 	mov.w	r3, #4294967295	; 0xffffffff
    11c2:	f884 0190 	strb.w	r0, [r4, #400]	; 0x190
    11c6:	f8c4 3208 	str.w	r3, [r4, #520]	; 0x208
    11ca:	4620      	mov	r0, r4
    11cc:	f7ff fa60 	bl	690 <Context::ProcessInput()>
    11d0:	4620      	mov	r0, r4
    11d2:	f7ff fbf3 	bl	9bc <Context::UpdateIcons()>
    11d6:	f894 3190 	ldrb.w	r3, [r4, #400]	; 0x190
    11da:	2b03      	cmp	r3, #3
    11dc:	f000 808f 	beq.w	12fe <Context::Update()+0x186>
    11e0:	2b01      	cmp	r3, #1
    11e2:	f000 8099 	beq.w	1318 <Context::Update()+0x1a0>
    11e6:	2b02      	cmp	r3, #2
    11e8:	f000 80d3 	beq.w	1392 <Context::Update()+0x21a>
    11ec:	2b04      	cmp	r3, #4
    11ee:	d05e      	beq.n	12ae <Context::Update()+0x136>
    11f0:	2b05      	cmp	r3, #5
    11f2:	d00f      	beq.n	1214 <Context::Update()+0x9c>
    11f4:	2b06      	cmp	r3, #6
    11f6:	d032      	beq.n	125e <Context::Update()+0xe6>
    11f8:	2b08      	cmp	r3, #8
    11fa:	f000 80e7 	beq.w	13cc <Context::Update()+0x254>
    11fe:	4620      	mov	r0, r4
    1200:	ee18 1a10 	vmov	r1, s16
    1204:	f7ff fdbc 	bl	d80 <Context::Render(float)>
    1208:	2001      	movs	r0, #1
    120a:	b013      	add	sp, #76	; 0x4c
    120c:	ecbd 8b02 	vpop	{d8}
    1210:	e8bd 83f0 	ldmia.w	sp!, {r4, r5, r6, r7, r8, r9, pc}
    1214:	f8d4 318c 	ldr.w	r3, [r4, #396]	; 0x18c
    1218:	f893 3094 	ldrb.w	r3, [r3, #148]	; 0x94
    121c:	2b00      	cmp	r3, #0
    121e:	d0ee      	beq.n	11fe <Context::Update()+0x86>
    1220:	4620      	mov	r0, r4
    1222:	f7ff fcdf 	bl	be4 <Context::ProcessLoadedAsset()>
    1226:	4606      	mov	r6, r0
    1228:	2800      	cmp	r0, #0
    122a:	d162      	bne.n	12f2 <Context::Update()+0x17a>
    122c:	f8d4 3208 	ldr.w	r3, [r4, #520]	; 0x208
    1230:	f8d4 11fc 	ldr.w	r1, [r4, #508]	; 0x1fc
    1234:	6820      	ldr	r0, [r4, #0]
    1236:	eb03 03c3 	add.w	r3, r3, r3, lsl #3
    123a:	f8d4 220c 	ldr.w	r2, [r4, #524]	; 0x20c
    123e:	eb01 03c3 	add.w	r3, r1, r3, lsl #3
    1242:	6805      	ldr	r5, [r0, #0]
    1244:	49ee      	ldr	r1, [pc, #952]	; (1600 <Context::Update()+0x488>)
    1246:	695b      	ldr	r3, [r3, #20]
    1248:	4479      	add	r1, pc
    124a:	f8d5 50b8 	ldr.w	r5, [r5, #184]	; 0xb8
    124e:	47a8      	blx	r5
    1250:	f04f 33ff 	mov.w	r3, #4294967295	; 0xffffffff
    1254:	f884 6190 	strb.w	r6, [r4, #400]	; 0x190
    1258:	f8c4 3208 	str.w	r3, [r4, #520]	; 0x208
    125c:	e7cf      	b.n	11fe <Context::Update()+0x86>
    125e:	f8d4 318c 	ldr.w	r3, [r4, #396]	; 0x18c
    1262:	f893 2094 	ldrb.w	r2, [r3, #148]	; 0x94
    1266:	2a00      	cmp	r2, #0
    1268:	d0c9      	beq.n	11fe <Context::Update()+0x86>
    126a:	f8d4 61f8 	ldr.w	r6, [r4, #504]	; 0x1f8
    126e:	2e00      	cmp	r6, #0
    1270:	d1c5      	bne.n	11fe <Context::Update()+0x86>
    1272:	f893 7095 	ldrb.w	r7, [r3, #149]	; 0x95
    1276:	6820      	ldr	r0, [r4, #0]
    1278:	6803      	ldr	r3, [r0, #0]
    127a:	2f00      	cmp	r7, #0
    127c:	f040 8151 	bne.w	1522 <Context::Update()+0x3aa>
    1280:	49e0      	ldr	r1, [pc, #896]	; (1604 <Context::Update()+0x48c>)
    1282:	f8d3 30b8 	ldr.w	r3, [r3, #184]	; 0xb8
    1286:	4479      	add	r1, pc
    1288:	4798      	blx	r3
    128a:	f04f 33ff 	mov.w	r3, #4294967295	; 0xffffffff
    128e:	f884 7190 	strb.w	r7, [r4, #400]	; 0x190
    1292:	f8c4 3208 	str.w	r3, [r4, #520]	; 0x208
    1296:	6820      	ldr	r0, [r4, #0]
    1298:	f8d4 118c 	ldr.w	r1, [r4, #396]	; 0x18c
    129c:	6803      	ldr	r3, [r0, #0]
    129e:	6a1b      	ldr	r3, [r3, #32]
    12a0:	4798      	blx	r3
    12a2:	2200      	movs	r2, #0
    12a4:	f894 3190 	ldrb.w	r3, [r4, #400]	; 0x190
    12a8:	f8c4 218c 	str.w	r2, [r4, #396]	; 0x18c
    12ac:	e7a4      	b.n	11f8 <Context::Update()+0x80>
    12ae:	f8d4 118c 	ldr.w	r1, [r4, #396]	; 0x18c
    12b2:	f891 3094 	ldrb.w	r3, [r1, #148]	; 0x94
    12b6:	b1e3      	cbz	r3, 12f2 <Context::Update()+0x17a>
    12b8:	f891 3095 	ldrb.w	r3, [r1, #149]	; 0x95
    12bc:	6820      	ldr	r0, [r4, #0]
    12be:	2b00      	cmp	r3, #0
    12c0:	f040 8115 	bne.w	14ee <Context::Update()+0x376>
    12c4:	6803      	ldr	r3, [r0, #0]
    12c6:	49d0      	ldr	r1, [pc, #832]	; (1608 <Context::Update()+0x490>)
    12c8:	f8d3 30b8 	ldr.w	r3, [r3, #184]	; 0xb8
    12cc:	4479      	add	r1, pc
    12ce:	4798      	blx	r3
    12d0:	6823      	ldr	r3, [r4, #0]
    12d2:	2600      	movs	r6, #0
    12d4:	f8d4 118c 	ldr.w	r1, [r4, #396]	; 0x18c
    12d8:	f884 6190 	strb.w	r6, [r4, #400]	; 0x190
    12dc:	4618      	mov	r0, r3
    12de:	681b      	ldr	r3, [r3, #0]
    12e0:	6a1b      	ldr	r3, [r3, #32]
    12e2:	4798      	blx	r3
    12e4:	f894 3190 	ldrb.w	r3, [r4, #400]	; 0x190
    12e8:	f8c4 618c 	str.w	r6, [r4, #396]	; 0x18c
    12ec:	2b05      	cmp	r3, #5
    12ee:	d181      	bne.n	11f4 <Context::Update()+0x7c>
    12f0:	e790      	b.n	1214 <Context::Update()+0x9c>
    12f2:	f894 3190 	ldrb.w	r3, [r4, #400]	; 0x190
    12f6:	2b06      	cmp	r3, #6
    12f8:	f47f af7e 	bne.w	11f8 <Context::Update()+0x80>
    12fc:	e7af      	b.n	125e <Context::Update()+0xe6>
    12fe:	6820      	ldr	r0, [r4, #0]
    1300:	6803      	ldr	r3, [r0, #0]
    1302:	691b      	ldr	r3, [r3, #16]
    1304:	4798      	blx	r3
    1306:	2801      	cmp	r0, #1
    1308:	4606      	mov	r6, r0
    130a:	f000 80c3 	beq.w	1494 <Context::Update()+0x31c>
    130e:	f894 3190 	ldrb.w	r3, [r4, #400]	; 0x190
    1312:	2b01      	cmp	r3, #1
    1314:	f47f af67 	bne.w	11e6 <Context::Update()+0x6e>
    1318:	f8d4 118c 	ldr.w	r1, [r4, #396]	; 0x18c
    131c:	f891 3094 	ldrb.w	r3, [r1, #148]	; 0x94
    1320:	2b00      	cmp	r3, #0
    1322:	d042      	beq.n	13aa <Context::Update()+0x232>
    1324:	4626      	mov	r6, r4
    1326:	f856 0b84 	ldr.w	r0, [r6], #132
    132a:	6803      	ldr	r3, [r0, #0]
    132c:	6a1b      	ldr	r3, [r3, #32]
    132e:	4798      	blx	r3
    1330:	4621      	mov	r1, r4
    1332:	4632      	mov	r2, r6
    1334:	f851 0b04 	ldr.w	r0, [r1], #4
    1338:	f7fe ff60 	bl	1fc <RequestAuthKey(API*, char const*, char const*)>
    133c:	2302      	movs	r3, #2
    133e:	f8c4 018c 	str.w	r0, [r4, #396]	; 0x18c
    1342:	f884 3190 	strb.w	r3, [r4, #400]	; 0x190
    1346:	f890 3094 	ldrb.w	r3, [r0, #148]	; 0x94
    134a:	b343      	cbz	r3, 139e <Context::Update()+0x226>
    134c:	4601      	mov	r1, r0
    134e:	f504 72ca 	add.w	r2, r4, #404	; 0x194
    1352:	6820      	ldr	r0, [r4, #0]
    1354:	f7fe ff84 	bl	260 <ParseAuthResponse(API*, HTTPRequest*, unsigned long&)>
    1358:	4606      	mov	r6, r0
    135a:	6820      	ldr	r0, [r4, #0]
    135c:	2e00      	cmp	r6, #0
    135e:	f000 80d4 	beq.w	150a <Context::Update()+0x392>
    1362:	6803      	ldr	r3, [r0, #0]
    1364:	f8d4 118c 	ldr.w	r1, [r4, #396]	; 0x18c
    1368:	6a1b      	ldr	r3, [r3, #32]
    136a:	4798      	blx	r3
    136c:	f8d4 1194 	ldr.w	r1, [r4, #404]	; 0x194
    1370:	4628      	mov	r0, r5
    1372:	f001 f837 	bl	23e4 <NotificationsCtx::SetAuthKey(unsigned long)>
    1376:	f8d4 1194 	ldr.w	r1, [r4, #404]	; 0x194
    137a:	6820      	ldr	r0, [r4, #0]
    137c:	f8c4 1388 	str.w	r1, [r4, #904]	; 0x388
    1380:	f7fe fff2 	bl	368 <RequestGamesList(API*, unsigned long)>
    1384:	2304      	movs	r3, #4
    1386:	4601      	mov	r1, r0
    1388:	f8c4 018c 	str.w	r0, [r4, #396]	; 0x18c
    138c:	f884 3190 	strb.w	r3, [r4, #400]	; 0x190
    1390:	e78f      	b.n	12b2 <Context::Update()+0x13a>
    1392:	f8d4 018c 	ldr.w	r0, [r4, #396]	; 0x18c
    1396:	f890 3094 	ldrb.w	r3, [r0, #148]	; 0x94
    139a:	2b00      	cmp	r3, #0
    139c:	d1d6      	bne.n	134c <Context::Update()+0x1d4>
    139e:	f894 3190 	ldrb.w	r3, [r4, #400]	; 0x190
    13a2:	2b05      	cmp	r3, #5
    13a4:	f47f af26 	bne.w	11f4 <Context::Update()+0x7c>
    13a8:	e734      	b.n	1214 <Context::Update()+0x9c>
    13aa:	f894 3190 	ldrb.w	r3, [r4, #400]	; 0x190
    13ae:	2b04      	cmp	r3, #4
    13b0:	f47f af1e 	bne.w	11f0 <Context::Update()+0x78>
    13b4:	e77b      	b.n	12ae <Context::Update()+0x136>
    13b6:	4628      	mov	r0, r5
    13b8:	ee18 1a10 	vmov	r1, s16
    13bc:	f000 fdf0 	bl	1fa0 <NotificationsCtx::Render(float)>
    13c0:	2001      	movs	r0, #1
    13c2:	b013      	add	sp, #76	; 0x4c
    13c4:	ecbd 8b02 	vpop	{d8}
    13c8:	e8bd 83f0 	ldmia.w	sp!, {r4, r5, r6, r7, r8, r9, pc}
    13cc:	f894 3364 	ldrb.w	r3, [r4, #868]	; 0x364
    13d0:	2b01      	cmp	r3, #1
    13d2:	d07d      	beq.n	14d0 <Context::Update()+0x358>
    13d4:	f8d4 13b0 	ldr.w	r1, [r4, #944]	; 0x3b0
    13d8:	b1f1      	cbz	r1, 1418 <Context::Update()+0x2a0>
    13da:	f891 2094 	ldrb.w	r2, [r1, #148]	; 0x94
    13de:	b1da      	cbz	r2, 1418 <Context::Update()+0x2a0>
    13e0:	f891 3095 	ldrb.w	r3, [r1, #149]	; 0x95
    13e4:	b133      	cbz	r3, 13f4 <Context::Update()+0x27c>
    13e6:	f8d1 309c 	ldr.w	r3, [r1, #156]	; 0x9c
    13ea:	f1a3 03c8 	sub.w	r3, r3, #200	; 0xc8
    13ee:	fab3 f383 	clz	r3, r3
    13f2:	095b      	lsrs	r3, r3, #5
    13f4:	f8d4 035c 	ldr.w	r0, [r4, #860]	; 0x35c
    13f8:	f884 33b8 	strb.w	r3, [r4, #952]	; 0x3b8
    13fc:	6803      	ldr	r3, [r0, #0]
    13fe:	6a1b      	ldr	r3, [r3, #32]
    1400:	4798      	blx	r3
    1402:	f04f 517c 	mov.w	r1, #1056964608	; 0x3f000000
    1406:	2200      	movs	r2, #0
    1408:	2303      	movs	r3, #3
    140a:	f8c4 13b4 	str.w	r1, [r4, #948]	; 0x3b4
    140e:	f8c4 23b0 	str.w	r2, [r4, #944]	; 0x3b0
    1412:	f884 3364 	strb.w	r3, [r4, #868]	; 0x364
    1416:	e6f2      	b.n	11fe <Context::Update()+0x86>
    1418:	2b03      	cmp	r3, #3
    141a:	f000 80df 	beq.w	15dc <Context::Update()+0x464>
    141e:	2b00      	cmp	r3, #0
    1420:	f47f aeed 	bne.w	11fe <Context::Update()+0x86>
    1424:	2200      	movs	r2, #0
    1426:	f894 33b8 	ldrb.w	r3, [r4, #952]	; 0x3b8
    142a:	f884 2190 	strb.w	r2, [r4, #400]	; 0x190
    142e:	2b00      	cmp	r3, #0
    1430:	f43f aee5 	beq.w	11fe <Context::Update()+0x86>
    1434:	4626      	mov	r6, r4
    1436:	f04f 33ff 	mov.w	r3, #4294967295	; 0xffffffff
    143a:	f504 7266 	add.w	r2, r4, #920	; 0x398
    143e:	f8c4 3194 	str.w	r3, [r4, #404]	; 0x194
    1442:	f856 0b84 	ldr.w	r0, [r6], #132
    1446:	6803      	ldr	r3, [r0, #0]
    1448:	4631      	mov	r1, r6
    144a:	f8d3 30b0 	ldr.w	r3, [r3, #176]	; 0xb0
    144e:	4798      	blx	r3
    1450:	6820      	ldr	r0, [r4, #0]
    1452:	4a6e      	ldr	r2, [pc, #440]	; (160c <Context::Update()+0x494>)
    1454:	6803      	ldr	r3, [r0, #0]
    1456:	496e      	ldr	r1, [pc, #440]	; (1610 <Context::Update()+0x498>)
    1458:	447a      	add	r2, pc
    145a:	f8d3 3090 	ldr.w	r3, [r3, #144]	; 0x90
    145e:	4479      	add	r1, pc
    1460:	4798      	blx	r3
    1462:	6825      	ldr	r5, [r4, #0]
    1464:	4607      	mov	r7, r0
    1466:	4631      	mov	r1, r6
    1468:	682b      	ldr	r3, [r5, #0]
    146a:	4628      	mov	r0, r5
    146c:	f8d3 20ac 	ldr.w	r2, [r3, #172]	; 0xac
    1470:	f8d3 8098 	ldr.w	r8, [r3, #152]	; 0x98
    1474:	4790      	blx	r2
    1476:	463b      	mov	r3, r7
    1478:	4602      	mov	r2, r0
    147a:	4631      	mov	r1, r6
    147c:	4628      	mov	r0, r5
    147e:	47c0      	blx	r8
    1480:	6820      	ldr	r0, [r4, #0]
    1482:	4639      	mov	r1, r7
    1484:	6803      	ldr	r3, [r0, #0]
    1486:	f8d3 30a0 	ldr.w	r3, [r3, #160]	; 0xa0
    148a:	4798      	blx	r3
    148c:	4620      	mov	r0, r4
    148e:	f7ff f8a5 	bl	5dc <Context::OnRefreshPressed()>
    1492:	e6b4      	b.n	11fe <Context::Update()+0x86>
    1494:	4627      	mov	r7, r4
    1496:	f857 8b84 	ldr.w	r8, [r7], #132
    149a:	f8d8 3000 	ldr.w	r3, [r8]
    149e:	4640      	mov	r0, r8
    14a0:	695a      	ldr	r2, [r3, #20]
    14a2:	f8d3 90b8 	ldr.w	r9, [r3, #184]	; 0xb8
    14a6:	4790      	blx	r2
    14a8:	495a      	ldr	r1, [pc, #360]	; (1614 <Context::Update()+0x49c>)
    14aa:	4602      	mov	r2, r0
    14ac:	4640      	mov	r0, r8
    14ae:	4479      	add	r1, pc
    14b0:	47c8      	blx	r9
    14b2:	4621      	mov	r1, r4
    14b4:	463a      	mov	r2, r7
    14b6:	f851 0b04 	ldr.w	r0, [r1], #4
    14ba:	f7fe fe6d 	bl	198 <RequestRegistration(API*, char const*, char const*)>
    14be:	4601      	mov	r1, r0
    14c0:	f8c4 018c 	str.w	r0, [r4, #396]	; 0x18c
    14c4:	2800      	cmp	r0, #0
    14c6:	f000 8086 	beq.w	15d6 <Context::Update()+0x45e>
    14ca:	f884 6190 	strb.w	r6, [r4, #400]	; 0x190
    14ce:	e725      	b.n	131c <Context::Update()+0x1a4>
    14d0:	edd4 7ae5 	vldr	s15, [r4, #916]	; 0x394
    14d4:	ed9f 7a49 	vldr	s14, [pc, #292]	; 15fc <Context::Update()+0x484>
    14d8:	ee78 7a27 	vadd.f32	s15, s16, s15
    14dc:	eef4 7ac7 	vcmpe.f32	s15, s14
    14e0:	eef1 fa10 	vmrs	APSR_nzcv, fpscr
    14e4:	dd74      	ble.n	15d0 <Context::Update()+0x458>
    14e6:	2300      	movs	r3, #0
    14e8:	f8c4 3394 	str.w	r3, [r4, #916]	; 0x394
    14ec:	e687      	b.n	11fe <Context::Update()+0x86>
    14ee:	f504 7300 	add.w	r3, r4, #512	; 0x200
    14f2:	f8d4 21fc 	ldr.w	r2, [r4, #508]	; 0x1fc
    14f6:	f7fe fec7 	bl	288 <ParseGamesList(API*, HTTPRequest*, GameDesc*, unsigned long&)>
    14fa:	6820      	ldr	r0, [r4, #0]
    14fc:	4946      	ldr	r1, [pc, #280]	; (1618 <Context::Update()+0x4a0>)
    14fe:	6803      	ldr	r3, [r0, #0]
    1500:	4479      	add	r1, pc
    1502:	f8d3 30b8 	ldr.w	r3, [r3, #184]	; 0xb8
    1506:	4798      	blx	r3
    1508:	e6e2      	b.n	12d0 <Context::Update()+0x158>
    150a:	f884 6190 	strb.w	r6, [r4, #400]	; 0x190
    150e:	6803      	ldr	r3, [r0, #0]
    1510:	f8d4 118c 	ldr.w	r1, [r4, #396]	; 0x18c
    1514:	6a1b      	ldr	r3, [r3, #32]
    1516:	4798      	blx	r3
    1518:	f894 3190 	ldrb.w	r3, [r4, #400]	; 0x190
    151c:	f8c4 618c 	str.w	r6, [r4, #396]	; 0x18c
    1520:	e664      	b.n	11ec <Context::Update()+0x74>
    1522:	f10d 0808 	add.w	r8, sp, #8
    1526:	f8d3 70a8 	ldr.w	r7, [r3, #168]	; 0xa8
    152a:	4632      	mov	r2, r6
    152c:	2340      	movs	r3, #64	; 0x40
    152e:	4641      	mov	r1, r8
    1530:	47b8      	blx	r7
    1532:	f8d4 3208 	ldr.w	r3, [r4, #520]	; 0x208
    1536:	f8d4 71fc 	ldr.w	r7, [r4, #508]	; 0x1fc
    153a:	4641      	mov	r1, r8
    153c:	6820      	ldr	r0, [r4, #0]
    153e:	eb03 03c3 	add.w	r3, r3, r3, lsl #3
    1542:	4a36      	ldr	r2, [pc, #216]	; (161c <Context::Update()+0x4a4>)
    1544:	eb07 03c3 	add.w	r3, r7, r3, lsl #3
    1548:	6807      	ldr	r7, [r0, #0]
    154a:	447a      	add	r2, pc
    154c:	3318      	adds	r3, #24
    154e:	f8d7 70b4 	ldr.w	r7, [r7, #180]	; 0xb4
    1552:	47b8      	blx	r7
    1554:	4628      	mov	r0, r5
    1556:	4642      	mov	r2, r8
    1558:	1d21      	adds	r1, r4, #4
    155a:	f000 fdb3 	bl	20c4 <NotificationsCtx::Post(char const*, char const*)>
    155e:	f8d4 2208 	ldr.w	r2, [r4, #520]	; 0x208
    1562:	f8d4 31fc 	ldr.w	r3, [r4, #508]	; 0x1fc
    1566:	6820      	ldr	r0, [r4, #0]
    1568:	eb02 02c2 	add.w	r2, r2, r2, lsl #3
    156c:	492c      	ldr	r1, [pc, #176]	; (1620 <Context::Update()+0x4a8>)
    156e:	eb03 02c2 	add.w	r2, r3, r2, lsl #3
    1572:	6803      	ldr	r3, [r0, #0]
    1574:	4479      	add	r1, pc
    1576:	3218      	adds	r2, #24
    1578:	f8d3 30b8 	ldr.w	r3, [r3, #184]	; 0xb8
    157c:	4798      	blx	r3
    157e:	6820      	ldr	r0, [r4, #0]
    1580:	f8d4 5204 	ldr.w	r5, [r4, #516]	; 0x204
    1584:	2304      	movs	r3, #4
    1586:	6801      	ldr	r1, [r0, #0]
    1588:	462a      	mov	r2, r5
    158a:	9600      	str	r6, [sp, #0]
    158c:	f8d1 70a4 	ldr.w	r7, [r1, #164]	; 0xa4
    1590:	4669      	mov	r1, sp
    1592:	47b8      	blx	r7
    1594:	6820      	ldr	r0, [r4, #0]
    1596:	2304      	movs	r3, #4
    1598:	9601      	str	r6, [sp, #4]
    159a:	6806      	ldr	r6, [r0, #0]
    159c:	1d2a      	adds	r2, r5, #4
    159e:	eb0d 0103 	add.w	r1, sp, r3
    15a2:	f8d6 70a4 	ldr.w	r7, [r6, #164]	; 0xa4
    15a6:	f105 0608 	add.w	r6, r5, #8
    15aa:	47b8      	blx	r7
    15ac:	f8d4 1198 	ldr.w	r1, [r4, #408]	; 0x198
    15b0:	6820      	ldr	r0, [r4, #0]
    15b2:	e9dd 3500 	ldrd	r3, r5, [sp]
    15b6:	3301      	adds	r3, #1
    15b8:	4433      	add	r3, r6
    15ba:	4798      	blx	r3
    15bc:	1c6b      	adds	r3, r5, #1
    15be:	2207      	movs	r2, #7
    15c0:	f8c4 0214 	str.w	r0, [r4, #532]	; 0x214
    15c4:	4433      	add	r3, r6
    15c6:	f884 2190 	strb.w	r2, [r4, #400]	; 0x190
    15ca:	f8c4 3210 	str.w	r3, [r4, #528]	; 0x210
    15ce:	e662      	b.n	1296 <Context::Update()+0x11e>
    15d0:	edc4 7ae5 	vstr	s15, [r4, #916]	; 0x394
    15d4:	e613      	b.n	11fe <Context::Update()+0x86>
    15d6:	f884 0190 	strb.w	r0, [r4, #400]	; 0x190
    15da:	e610      	b.n	11fe <Context::Update()+0x86>
    15dc:	edd4 7aed 	vldr	s15, [r4, #948]	; 0x3b4
    15e0:	ee77 7ac8 	vsub.f32	s15, s15, s16
    15e4:	eef5 7ac0 	vcmpe.f32	s15, #0.0
    15e8:	edc4 7aed 	vstr	s15, [r4, #948]	; 0x3b4
    15ec:	eef1 fa10 	vmrs	APSR_nzcv, fpscr
    15f0:	f57f ae05 	bpl.w	11fe <Context::Update()+0x86>
    15f4:	2300      	movs	r3, #0
    15f6:	f884 3364 	strb.w	r3, [r4, #868]	; 0x364
    15fa:	e713      	b.n	1424 <Context::Update()+0x2ac>
    15fc:	3f4ccccd 	.word	0x3f4ccccd
    1600:	000014c8 	.word	0x000014c8
    1604:	000014d2 	.word	0x000014d2
    1608:	0000141c 	.word	0x0000141c
    160c:	000011f4 	.word	0x000011f4
    1610:	00001316 	.word	0x00001316
    1614:	00001202 	.word	0x00001202
    1618:	000011d0 	.word	0x000011d0
    161c:	000011ea 	.word	0x000011ea
    1620:	000011d0 	.word	0x000011d0

00001624 <GameInit(API*, unsigned char*)>:
    1624:	6803      	ldr	r3, [r0, #0]
    1626:	e92d 4ff0 	stmdb	sp!, {r4, r5, r6, r7, r8, r9, sl, fp, lr}
    162a:	681b      	ldr	r3, [r3, #0]
    162c:	b091      	sub	sp, #68	; 0x44
    162e:	468a      	mov	sl, r1
    1630:	f44f 7170 	mov.w	r1, #960	; 0x3c0
    1634:	4605      	mov	r5, r0
    1636:	4798      	blx	r3
    1638:	4604      	mov	r4, r0
    163a:	2700      	movs	r7, #0
    163c:	f500 7009 	add.w	r0, r0, #548	; 0x224
    1640:	f44f 78f0 	mov.w	r8, #480	; 0x1e0
    1644:	f504 7382 	add.w	r3, r4, #260	; 0x104
    1648:	6025      	str	r5, [r4, #0]
    164a:	f8c4 7104 	str.w	r7, [r4, #260]	; 0x104
    164e:	2628      	movs	r6, #40	; 0x28
    1650:	f8c4 7110 	str.w	r7, [r4, #272]	; 0x110
    1654:	46bb      	mov	fp, r7
    1656:	9303      	str	r3, [sp, #12]
    1658:	9004      	str	r0, [sp, #16]
    165a:	e9c4 7742 	strd	r7, r7, [r4, #264]	; 0x108
    165e:	e9c4 774f 	strd	r7, r7, [r4, #316]	; 0x13c
    1662:	e9c4 7751 	strd	r7, r7, [r4, #324]	; 0x144
    1666:	e9c4 7753 	strd	r7, r7, [r4, #332]	; 0x14c
    166a:	e9c4 7755 	strd	r7, r7, [r4, #340]	; 0x154
    166e:	e9c4 7757 	strd	r7, r7, [r4, #348]	; 0x15c
    1672:	e9c4 7759 	strd	r7, r7, [r4, #356]	; 0x164
    1676:	e9c4 775b 	strd	r7, r7, [r4, #364]	; 0x16c
    167a:	e9c4 775d 	strd	r7, r7, [r4, #372]	; 0x174
    167e:	e9c4 775f 	strd	r7, r7, [r4, #380]	; 0x17c
    1682:	e9c4 7761 	strd	r7, r7, [r4, #388]	; 0x184
    1686:	f000 fc35 	bl	1ef4 <NotificationsCtx::NotificationsCtx()>
    168a:	f44f 7e88 	mov.w	lr, #272	; 0x110
    168e:	f04f 0cdc 	mov.w	ip, #220	; 0xdc
    1692:	2278      	movs	r2, #120	; 0x78
    1694:	f504 71ce 	add.w	r1, r4, #412	; 0x19c
    1698:	f04f 33ff 	mov.w	r3, #4294967295	; 0xffffffff
    169c:	f8c4 535c 	str.w	r5, [r4, #860]	; 0x35c
    16a0:	4628      	mov	r0, r5
    16a2:	f8c4 1360 	str.w	r1, [r4, #864]	; 0x360
    16a6:	f44f 7170 	mov.w	r1, #960	; 0x3c0
    16aa:	f884 7364 	strb.w	r7, [r4, #868]	; 0x364
    16ae:	f884 738c 	strb.w	r7, [r4, #908]	; 0x38c
    16b2:	f8c4 3388 	str.w	r3, [r4, #904]	; 0x388
    16b6:	e9c4 8edc 	strd	r8, lr, [r4, #880]	; 0x370
    16ba:	e9c4 c2de 	strd	ip, r2, [r4, #888]	; 0x378
    16be:	e9c4 77da 	strd	r7, r7, [r4, #872]	; 0x368
    16c2:	e9c4 66e0 	strd	r6, r6, [r4, #896]	; 0x380
    16c6:	682b      	ldr	r3, [r5, #0]
    16c8:	681b      	ldr	r3, [r3, #0]
    16ca:	4798      	blx	r3
    16cc:	4601      	mov	r1, r0
    16ce:	f8d4 035c 	ldr.w	r0, [r4, #860]	; 0x35c
    16d2:	463a      	mov	r2, r7
    16d4:	f8c4 1390 	str.w	r1, [r4, #912]	; 0x390
    16d8:	f44f 7370 	mov.w	r3, #960	; 0x3c0
    16dc:	f8d0 c000 	ldr.w	ip, [r0]
    16e0:	f8dc 80a8 	ldr.w	r8, [ip, #168]	; 0xa8
    16e4:	47c0      	blx	r8
    16e6:	2300      	movs	r3, #0
    16e8:	f8d4 035c 	ldr.w	r0, [r4, #860]	; 0x35c
    16ec:	463a      	mov	r2, r7
    16ee:	f8c4 3394 	str.w	r3, [r4, #916]	; 0x394
    16f2:	f504 7166 	add.w	r1, r4, #920	; 0x398
    16f6:	f8d0 c000 	ldr.w	ip, [r0]
    16fa:	2311      	movs	r3, #17
    16fc:	f8dc 80a8 	ldr.w	r8, [ip, #168]	; 0xa8
    1700:	47c0      	blx	r8
    1702:	f8d4 335c 	ldr.w	r3, [r4, #860]	; 0x35c
    1706:	f8c4 73ac 	str.w	r7, [r4, #940]	; 0x3ac
    170a:	aa08      	add	r2, sp, #32
    170c:	f8c4 73b0 	str.w	r7, [r4, #944]	; 0x3b0
    1710:	4618      	mov	r0, r3
    1712:	681b      	ldr	r3, [r3, #0]
    1714:	2104      	movs	r1, #4
    1716:	f8df 8538 	ldr.w	r8, [pc, #1336]	; 1c50 <GameInit(API*, unsigned char*)+0x62c>
    171a:	6f1b      	ldr	r3, [r3, #112]	; 0x70
    171c:	4798      	blx	r3
    171e:	aa0d      	add	r2, sp, #52	; 0x34
    1720:	463b      	mov	r3, r7
    1722:	f04f 0e16 	mov.w	lr, #22
    1726:	4691      	mov	r9, r2
    1728:	44f8      	add	r8, pc
    172a:	9201      	str	r2, [sp, #4]
    172c:	9502      	str	r5, [sp, #8]
    172e:	f8d4 2390 	ldr.w	r2, [r4, #912]	; 0x390
    1732:	2564      	movs	r5, #100	; 0x64
    1734:	9f01      	ldr	r7, [sp, #4]
    1736:	f802 b003 	strb.w	fp, [r2, r3]
    173a:	f8d4 2390 	ldr.w	r2, [r4, #912]	; 0x390
    173e:	eb02 0c03 	add.w	ip, r2, r3
    1742:	e898 0007 	ldmia.w	r8, {r0, r1, r2}
    1746:	f8cc e004 	str.w	lr, [ip, #4]
    174a:	f10e 0e2c 	add.w	lr, lr, #44	; 0x2c
    174e:	f8cc 6010 	str.w	r6, [ip, #16]
    1752:	f5be 7fe7 	cmp.w	lr, #462	; 0x1ce
    1756:	e9cc 5602 	strd	r5, r6, [ip, #8]
    175a:	c703      	stmia	r7!, {r0, r1}
    175c:	f8d4 1390 	ldr.w	r1, [r4, #912]	; 0x390
    1760:	803a      	strh	r2, [r7, #0]
    1762:	4419      	add	r1, r3
    1764:	f819 0b01 	ldrb.w	r0, [r9], #1
    1768:	7508      	strb	r0, [r1, #20]
    176a:	f8d4 2390 	ldr.w	r2, [r4, #912]	; 0x390
    176e:	441a      	add	r2, r3
    1770:	f103 0318 	add.w	r3, r3, #24
    1774:	7550      	strb	r0, [r2, #21]
    1776:	d1da      	bne.n	172e <GameInit(API*, unsigned char*)+0x10a>
    1778:	f8df 34d8 	ldr.w	r3, [pc, #1240]	; 1c54 <GameInit(API*, unsigned char*)+0x630>
    177c:	af0a      	add	r7, sp, #40	; 0x28
    177e:	9d02      	ldr	r5, [sp, #8]
    1780:	26f0      	movs	r6, #240	; 0xf0
    1782:	447b      	add	r3, pc
    1784:	f8dd 8004 	ldr.w	r8, [sp, #4]
    1788:	46bb      	mov	fp, r7
    178a:	f04f 0e16 	mov.w	lr, #22
    178e:	f103 020c 	add.w	r2, r3, #12
    1792:	3318      	adds	r3, #24
    1794:	9506      	str	r5, [sp, #24]
    1796:	9202      	str	r2, [sp, #8]
    1798:	9305      	str	r3, [sp, #20]
    179a:	f8d4 2390 	ldr.w	r2, [r4, #912]	; 0x390
    179e:	f04f 0100 	mov.w	r1, #0
    17a2:	2590      	movs	r5, #144	; 0x90
    17a4:	46bc      	mov	ip, r7
    17a6:	5591      	strb	r1, [r2, r6]
    17a8:	f8d4 2390 	ldr.w	r2, [r4, #912]	; 0x390
    17ac:	9b01      	ldr	r3, [sp, #4]
    17ae:	eb02 0906 	add.w	r9, r2, r6
    17b2:	9a02      	ldr	r2, [sp, #8]
    17b4:	f8c9 5008 	str.w	r5, [r9, #8]
    17b8:	2528      	movs	r5, #40	; 0x28
    17ba:	f8c9 e004 	str.w	lr, [r9, #4]
    17be:	f10e 0e2c 	add.w	lr, lr, #44	; 0x2c
    17c2:	ca07      	ldmia	r2, {r0, r1, r2}
    17c4:	e9c9 5503 	strd	r5, r5, [r9, #12]
    17c8:	e8ac 0003 	stmia.w	ip!, {r0, r1}
    17cc:	f8d4 1390 	ldr.w	r1, [r4, #912]	; 0x390
    17d0:	f5be 7fe7 	cmp.w	lr, #462	; 0x1ce
    17d4:	f8ac 2000 	strh.w	r2, [ip]
    17d8:	4431      	add	r1, r6
    17da:	f81b 2b01 	ldrb.w	r2, [fp], #1
    17de:	750a      	strb	r2, [r1, #20]
    17e0:	9a05      	ldr	r2, [sp, #20]
    17e2:	f8d4 5390 	ldr.w	r5, [r4, #912]	; 0x390
    17e6:	ca07      	ldmia	r2, {r0, r1, r2}
    17e8:	eb05 0c06 	add.w	ip, r5, r6
    17ec:	f106 0618 	add.w	r6, r6, #24
    17f0:	c303      	stmia	r3!, {r0, r1}
    17f2:	801a      	strh	r2, [r3, #0]
    17f4:	f818 3b01 	ldrb.w	r3, [r8], #1
    17f8:	f88c 3015 	strb.w	r3, [ip, #21]
    17fc:	d1cd      	bne.n	179a <GameInit(API*, unsigned char*)+0x176>
    17fe:	f8df 3458 	ldr.w	r3, [pc, #1112]	; 1c58 <GameInit(API*, unsigned char*)+0x634>
    1802:	f44f 76f0 	mov.w	r6, #480	; 0x1e0
    1806:	9d06      	ldr	r5, [sp, #24]
    1808:	f04f 0c2c 	mov.w	ip, #44	; 0x2c
    180c:	447b      	add	r3, pc
    180e:	f8dd 8004 	ldr.w	r8, [sp, #4]
    1812:	f04f 0bbc 	mov.w	fp, #188	; 0xbc
    1816:	9702      	str	r7, [sp, #8]
    1818:	f103 0224 	add.w	r2, r3, #36	; 0x24
    181c:	3330      	adds	r3, #48	; 0x30
    181e:	9507      	str	r5, [sp, #28]
    1820:	9205      	str	r2, [sp, #20]
    1822:	9306      	str	r3, [sp, #24]
    1824:	f8d4 2390 	ldr.w	r2, [r4, #912]	; 0x390
    1828:	f04f 0100 	mov.w	r1, #0
    182c:	2528      	movs	r5, #40	; 0x28
    182e:	46be      	mov	lr, r7
    1830:	5591      	strb	r1, [r2, r6]
    1832:	f8d4 2390 	ldr.w	r2, [r4, #912]	; 0x390
    1836:	9b01      	ldr	r3, [sp, #4]
    1838:	eb02 0906 	add.w	r9, r2, r6
    183c:	9a05      	ldr	r2, [sp, #20]
    183e:	ca07      	ldmia	r2, {r0, r1, r2}
    1840:	f8c9 c004 	str.w	ip, [r9, #4]
    1844:	f10c 0c2c 	add.w	ip, ip, #44	; 0x2c
    1848:	f8c9 b008 	str.w	fp, [r9, #8]
    184c:	f5bc 7fdc 	cmp.w	ip, #440	; 0x1b8
    1850:	e8ae 0003 	stmia.w	lr!, {r0, r1}
    1854:	e9c9 5503 	strd	r5, r5, [r9, #12]
    1858:	9802      	ldr	r0, [sp, #8]
    185a:	f8d4 1390 	ldr.w	r1, [r4, #912]	; 0x390
    185e:	f88e 2000 	strb.w	r2, [lr]
    1862:	4431      	add	r1, r6
    1864:	f810 2b01 	ldrb.w	r2, [r0], #1
    1868:	750a      	strb	r2, [r1, #20]
    186a:	9a06      	ldr	r2, [sp, #24]
    186c:	f8d4 5390 	ldr.w	r5, [r4, #912]	; 0x390
    1870:	9002      	str	r0, [sp, #8]
    1872:	eb05 0e06 	add.w	lr, r5, r6
    1876:	f106 0618 	add.w	r6, r6, #24
    187a:	ca07      	ldmia	r2, {r0, r1, r2}
    187c:	c303      	stmia	r3!, {r0, r1}
    187e:	701a      	strb	r2, [r3, #0]
    1880:	f818 3b01 	ldrb.w	r3, [r8], #1
    1884:	f88e 3015 	strb.w	r3, [lr, #21]
    1888:	d1cc      	bne.n	1824 <GameInit(API*, unsigned char*)+0x200>
    188a:	f8d4 3390 	ldr.w	r3, [r4, #912]	; 0x390
    188e:	2203      	movs	r2, #3
    1890:	2104      	movs	r1, #4
    1892:	2624      	movs	r6, #36	; 0x24
    1894:	f883 22b8 	strb.w	r2, [r3, #696]	; 0x2b8
    1898:	2054      	movs	r0, #84	; 0x54
    189a:	f8d4 3390 	ldr.w	r3, [r4, #912]	; 0x390
    189e:	f04f 0801 	mov.w	r8, #1
    18a2:	46b9      	mov	r9, r7
    18a4:	9d07      	ldr	r5, [sp, #28]
    18a6:	f8c3 b2c0 	str.w	fp, [r3, #704]	; 0x2c0
    18aa:	2758      	movs	r7, #88	; 0x58
    18ac:	f8c3 12bc 	str.w	r1, [r3, #700]	; 0x2bc
    18b0:	f8dd e004 	ldr.w	lr, [sp, #4]
    18b4:	e9c3 60b1 	strd	r6, r0, [r3, #708]	; 0x2c4
    18b8:	f8d4 2390 	ldr.w	r2, [r4, #912]	; 0x390
    18bc:	f44f 7340 	mov.w	r3, #768	; 0x300
    18c0:	f882 12d0 	strb.w	r1, [r2, #720]	; 0x2d0
    18c4:	22e8      	movs	r2, #232	; 0xe8
    18c6:	f8d4 1390 	ldr.w	r1, [r4, #912]	; 0x390
    18ca:	f8c1 62dc 	str.w	r6, [r1, #732]	; 0x2dc
    18ce:	2600      	movs	r6, #0
    18d0:	f8c1 02e0 	str.w	r0, [r1, #736]	; 0x2e0
    18d4:	2028      	movs	r0, #40	; 0x28
    18d6:	e9c1 cbb5 	strd	ip, fp, [r1, #724]	; 0x2d4
    18da:	f8d4 1390 	ldr.w	r1, [r4, #912]	; 0x390
    18de:	f644 6b42 	movw	fp, #20034	; 0x4e42
    18e2:	f881 82e8 	strb.w	r8, [r1, #744]	; 0x2e8
    18e6:	212c      	movs	r1, #44	; 0x2c
    18e8:	f8d4 c390 	ldr.w	ip, [r4, #912]	; 0x390
    18ec:	e9cc 00bd 	strd	r0, r0, [ip, #756]	; 0x2f4
    18f0:	e9cc 12bb 	strd	r1, r2, [ip, #748]	; 0x2ec
    18f4:	f8df c364 	ldr.w	ip, [pc, #868]	; 1c5c <GameInit(API*, unsigned char*)+0x638>
    18f8:	49d3      	ldr	r1, [pc, #844]	; (1c48 <GameInit(API*, unsigned char*)+0x624>)
    18fa:	f8d4 2390 	ldr.w	r2, [r4, #912]	; 0x390
    18fe:	910a      	str	r1, [sp, #40]	; 0x28
    1900:	f646 6162 	movw	r1, #28258	; 0x6e62
    1904:	54d6      	strb	r6, [r2, r3]
    1906:	f8ad 102c 	strh.w	r1, [sp, #44]	; 0x2c
    190a:	f04f 016d 	mov.w	r1, #109	; 0x6d
    190e:	f8d4 2390 	ldr.w	r2, [r4, #912]	; 0x390
    1912:	f88d 102e 	strb.w	r1, [sp, #46]	; 0x2e
    1916:	21e8      	movs	r1, #232	; 0xe8
    1918:	441a      	add	r2, r3
    191a:	f819 8b01 	ldrb.w	r8, [r9], #1
    191e:	f8cd c034 	str.w	ip, [sp, #52]	; 0x34
    1922:	6057      	str	r7, [r2, #4]
    1924:	372c      	adds	r7, #44	; 0x2c
    1926:	6110      	str	r0, [r2, #16]
    1928:	f8ad b038 	strh.w	fp, [sp, #56]	; 0x38
    192c:	f5b7 7fc6 	cmp.w	r7, #396	; 0x18c
    1930:	e9c2 1002 	strd	r1, r0, [r2, #8]
    1934:	f8d4 2390 	ldr.w	r2, [r4, #912]	; 0x390
    1938:	f04f 014d 	mov.w	r1, #77	; 0x4d
    193c:	441a      	add	r2, r3
    193e:	f88d 103a 	strb.w	r1, [sp, #58]	; 0x3a
    1942:	f882 8014 	strb.w	r8, [r2, #20]
    1946:	f8d4 2390 	ldr.w	r2, [r4, #912]	; 0x390
    194a:	f81e 8b01 	ldrb.w	r8, [lr], #1
    194e:	441a      	add	r2, r3
    1950:	f103 0318 	add.w	r3, r3, #24
    1954:	f882 8015 	strb.w	r8, [r2, #21]
    1958:	d1ce      	bne.n	18f8 <GameInit(API*, unsigned char*)+0x2d4>
    195a:	f8d4 3390 	ldr.w	r3, [r4, #912]	; 0x390
    195e:	2202      	movs	r2, #2
    1960:	4626      	mov	r6, r4
    1962:	9903      	ldr	r1, [sp, #12]
    1964:	f883 23a8 	strb.w	r2, [r3, #936]	; 0x3a8
    1968:	22e8      	movs	r2, #232	; 0xe8
    196a:	f8d4 3390 	ldr.w	r3, [r4, #912]	; 0x390
    196e:	46a0      	mov	r8, r4
    1970:	f8c3 73ac 	str.w	r7, [r3, #940]	; 0x3ac
    1974:	f8c3 03b8 	str.w	r0, [r3, #952]	; 0x3b8
    1978:	e9c3 20ec 	strd	r2, r0, [r3, #944]	; 0x3b0
    197c:	6820      	ldr	r0, [r4, #0]
    197e:	6803      	ldr	r3, [r0, #0]
    1980:	689b      	ldr	r3, [r3, #8]
    1982:	4798      	blx	r3
    1984:	f856 0b04 	ldr.w	r0, [r6], #4
    1988:	2380      	movs	r3, #128	; 0x80
    198a:	2200      	movs	r2, #0
    198c:	6807      	ldr	r7, [r0, #0]
    198e:	4631      	mov	r1, r6
    1990:	f8d7 70a8 	ldr.w	r7, [r7, #168]	; 0xa8
    1994:	47b8      	blx	r7
    1996:	f858 0b84 	ldr.w	r0, [r8], #132
    199a:	2380      	movs	r3, #128	; 0x80
    199c:	2200      	movs	r2, #0
    199e:	6807      	ldr	r7, [r0, #0]
    19a0:	4641      	mov	r1, r8
    19a2:	f8d7 70a8 	ldr.w	r7, [r7, #168]	; 0xa8
    19a6:	47b8      	blx	r7
    19a8:	6820      	ldr	r0, [r4, #0]
    19aa:	4aad      	ldr	r2, [pc, #692]	; (1c60 <GameInit(API*, unsigned char*)+0x63c>)
    19ac:	6803      	ldr	r3, [r0, #0]
    19ae:	49ad      	ldr	r1, [pc, #692]	; (1c64 <GameInit(API*, unsigned char*)+0x640>)
    19b0:	447a      	add	r2, pc
    19b2:	f8d3 3090 	ldr.w	r3, [r3, #144]	; 0x90
    19b6:	4479      	add	r1, pc
    19b8:	4798      	blx	r3
    19ba:	4607      	mov	r7, r0
    19bc:	6820      	ldr	r0, [r4, #0]
    19be:	2f00      	cmp	r7, #0
    19c0:	f000 826d 	beq.w	1e9e <GameInit(API*, unsigned char*)+0x87a>
    19c4:	6803      	ldr	r3, [r0, #0]
    19c6:	4639      	mov	r1, r7
    19c8:	f8d3 309c 	ldr.w	r3, [r3, #156]	; 0x9c
    19cc:	4798      	blx	r3
    19ce:	6823      	ldr	r3, [r4, #0]
    19d0:	4631      	mov	r1, r6
    19d2:	4602      	mov	r2, r0
    19d4:	681e      	ldr	r6, [r3, #0]
    19d6:	4618      	mov	r0, r3
    19d8:	463b      	mov	r3, r7
    19da:	f8d6 6094 	ldr.w	r6, [r6, #148]	; 0x94
    19de:	47b0      	blx	r6
    19e0:	6820      	ldr	r0, [r4, #0]
    19e2:	4639      	mov	r1, r7
    19e4:	6803      	ldr	r3, [r0, #0]
    19e6:	f8d3 30a0 	ldr.w	r3, [r3, #160]	; 0xa0
    19ea:	4798      	blx	r3
    19ec:	6820      	ldr	r0, [r4, #0]
    19ee:	4a9e      	ldr	r2, [pc, #632]	; (1c68 <GameInit(API*, unsigned char*)+0x644>)
    19f0:	6803      	ldr	r3, [r0, #0]
    19f2:	499e      	ldr	r1, [pc, #632]	; (1c6c <GameInit(API*, unsigned char*)+0x648>)
    19f4:	447a      	add	r2, pc
    19f6:	f8d3 3090 	ldr.w	r3, [r3, #144]	; 0x90
    19fa:	4479      	add	r1, pc
    19fc:	4798      	blx	r3
    19fe:	4606      	mov	r6, r0
    1a00:	b1a0      	cbz	r0, 1a2c <GameInit(API*, unsigned char*)+0x408>
    1a02:	6820      	ldr	r0, [r4, #0]
    1a04:	4631      	mov	r1, r6
    1a06:	6803      	ldr	r3, [r0, #0]
    1a08:	f8d3 309c 	ldr.w	r3, [r3, #156]	; 0x9c
    1a0c:	4798      	blx	r3
    1a0e:	6823      	ldr	r3, [r4, #0]
    1a10:	4602      	mov	r2, r0
    1a12:	4641      	mov	r1, r8
    1a14:	681f      	ldr	r7, [r3, #0]
    1a16:	4618      	mov	r0, r3
    1a18:	4633      	mov	r3, r6
    1a1a:	f8d7 7094 	ldr.w	r7, [r7, #148]	; 0x94
    1a1e:	47b8      	blx	r7
    1a20:	6820      	ldr	r0, [r4, #0]
    1a22:	4631      	mov	r1, r6
    1a24:	6803      	ldr	r3, [r0, #0]
    1a26:	f8d3 30a0 	ldr.w	r3, [r3, #160]	; 0xa0
    1a2a:	4798      	blx	r3
    1a2c:	2200      	movs	r2, #0
    1a2e:	2008      	movs	r0, #8
    1a30:	2128      	movs	r1, #40	; 0x28
    1a32:	f44f 7ef0 	mov.w	lr, #480	; 0x1e0
    1a36:	f44f 7688 	mov.w	r6, #272	; 0x110
    1a3a:	f04f 0c0a 	mov.w	ip, #10
    1a3e:	f44f 77da 	mov.w	r7, #436	; 0x1b4
    1a42:	4613      	mov	r3, r2
    1a44:	f8c4 213c 	str.w	r2, [r4, #316]	; 0x13c
    1a48:	f44f 78cc 	mov.w	r8, #408	; 0x198
    1a4c:	f8c4 2140 	str.w	r2, [r4, #320]	; 0x140
    1a50:	f8c4 218c 	str.w	r2, [r4, #396]	; 0x18c
    1a54:	2220      	movs	r2, #32
    1a56:	f8c4 e144 	str.w	lr, [r4, #324]	; 0x144
    1a5a:	f44f 7ede 	mov.w	lr, #444	; 0x1bc
    1a5e:	f8c4 6148 	str.w	r6, [r4, #328]	; 0x148
    1a62:	26ec      	movs	r6, #236	; 0xec
    1a64:	f8c4 c14c 	str.w	ip, [r4, #332]	; 0x14c
    1a68:	f04f 0c03 	mov.w	ip, #3
    1a6c:	f8c4 0150 	str.w	r0, [r4, #336]	; 0x150
    1a70:	f8c4 0160 	str.w	r0, [r4, #352]	; 0x160
    1a74:	f504 70d0 	add.w	r0, r4, #416	; 0x1a0
    1a78:	f8c4 715c 	str.w	r7, [r4, #348]	; 0x15c
    1a7c:	f04f 37ff 	mov.w	r7, #4294967295	; 0xffffffff
    1a80:	f8c4 519c 	str.w	r5, [r4, #412]	; 0x19c
    1a84:	f8c4 816c 	str.w	r8, [r4, #364]	; 0x16c
    1a88:	f8c4 6170 	str.w	r6, [r4, #368]	; 0x170
    1a8c:	f8c4 6180 	str.w	r6, [r4, #384]	; 0x180
    1a90:	f8c4 e17c 	str.w	lr, [r4, #380]	; 0x17c
    1a94:	f884 c190 	strb.w	ip, [r4, #400]	; 0x190
    1a98:	f8c4 7194 	str.w	r7, [r4, #404]	; 0x194
    1a9c:	e9c4 1155 	strd	r1, r1, [r4, #340]	; 0x154
    1aa0:	e9c4 1159 	strd	r1, r1, [r4, #356]	; 0x164
    1aa4:	e9c4 225d 	strd	r2, r2, [r4, #372]	; 0x174
    1aa8:	e9c4 2261 	strd	r2, r2, [r4, #388]	; 0x184
    1aac:	4651      	mov	r1, sl
    1aae:	4a67      	ldr	r2, [pc, #412]	; (1c4c <GameInit(API*, unsigned char*)+0x628>)
    1ab0:	f840 1b04 	str.w	r1, [r0], #4
    1ab4:	4411      	add	r1, r2
    1ab6:	60c3      	str	r3, [r0, #12]
    1ab8:	3301      	adds	r3, #1
    1aba:	2b04      	cmp	r3, #4
    1abc:	d1f8      	bne.n	1ab0 <GameInit(API*, unsigned char*)+0x48c>
    1abe:	6829      	ldr	r1, [r5, #0]
    1ac0:	4628      	mov	r0, r5
    1ac2:	f8df 81ac 	ldr.w	r8, [pc, #428]	; 1c70 <GameInit(API*, unsigned char*)+0x64c>
    1ac6:	2700      	movs	r7, #0
    1ac8:	4e6a      	ldr	r6, [pc, #424]	; (1c74 <GameInit(API*, unsigned char*)+0x650>)
    1aca:	44d0      	add	r8, sl
    1acc:	f8c4 31c0 	str.w	r3, [r4, #448]	; 0x1c0
    1ad0:	447e      	add	r6, pc
    1ad2:	f8d1 3090 	ldr.w	r3, [r1, #144]	; 0x90
    1ad6:	4968      	ldr	r1, [pc, #416]	; (1c78 <GameInit(API*, unsigned char*)+0x654>)
    1ad8:	4632      	mov	r2, r6
    1ada:	f8c4 81c4 	str.w	r8, [r4, #452]	; 0x1c4
    1ade:	4479      	add	r1, pc
    1ae0:	4798      	blx	r3
    1ae2:	4681      	mov	r9, r0
    1ae4:	f8d4 019c 	ldr.w	r0, [r4, #412]	; 0x19c
    1ae8:	4641      	mov	r1, r8
    1aea:	464b      	mov	r3, r9
    1aec:	f44f 22ff 	mov.w	r2, #522240	; 0x7f800
    1af0:	f8d0 c000 	ldr.w	ip, [r0]
    1af4:	f8dc 8094 	ldr.w	r8, [ip, #148]	; 0x94
    1af8:	47c0      	blx	r8
    1afa:	f8d4 019c 	ldr.w	r0, [r4, #412]	; 0x19c
    1afe:	4649      	mov	r1, r9
    1b00:	f8df 8178 	ldr.w	r8, [pc, #376]	; 1c7c <GameInit(API*, unsigned char*)+0x658>
    1b04:	6803      	ldr	r3, [r0, #0]
    1b06:	44d0      	add	r8, sl
    1b08:	f8d3 30a0 	ldr.w	r3, [r3, #160]	; 0xa0
    1b0c:	4798      	blx	r3
    1b0e:	f8d4 019c 	ldr.w	r0, [r4, #412]	; 0x19c
    1b12:	495b      	ldr	r1, [pc, #364]	; (1c80 <GameInit(API*, unsigned char*)+0x65c>)
    1b14:	4632      	mov	r2, r6
    1b16:	6803      	ldr	r3, [r0, #0]
    1b18:	f8c4 81c8 	str.w	r8, [r4, #456]	; 0x1c8
    1b1c:	4479      	add	r1, pc
    1b1e:	f8d3 3090 	ldr.w	r3, [r3, #144]	; 0x90
    1b22:	4798      	blx	r3
    1b24:	4681      	mov	r9, r0
    1b26:	f8d4 019c 	ldr.w	r0, [r4, #412]	; 0x19c
    1b2a:	4641      	mov	r1, r8
    1b2c:	464b      	mov	r3, r9
    1b2e:	4a47      	ldr	r2, [pc, #284]	; (1c4c <GameInit(API*, unsigned char*)+0x628>)
    1b30:	f8d0 c000 	ldr.w	ip, [r0]
    1b34:	f8dc 8094 	ldr.w	r8, [ip, #148]	; 0x94
    1b38:	47c0      	blx	r8
    1b3a:	f8d4 019c 	ldr.w	r0, [r4, #412]	; 0x19c
    1b3e:	4649      	mov	r1, r9
    1b40:	f8df 8140 	ldr.w	r8, [pc, #320]	; 1c84 <GameInit(API*, unsigned char*)+0x660>
    1b44:	6803      	ldr	r3, [r0, #0]
    1b46:	44d0      	add	r8, sl
    1b48:	f8d3 30a0 	ldr.w	r3, [r3, #160]	; 0xa0
    1b4c:	4798      	blx	r3
    1b4e:	f8d4 019c 	ldr.w	r0, [r4, #412]	; 0x19c
    1b52:	494d      	ldr	r1, [pc, #308]	; (1c88 <GameInit(API*, unsigned char*)+0x664>)
    1b54:	4632      	mov	r2, r6
    1b56:	6803      	ldr	r3, [r0, #0]
    1b58:	f8c4 81cc 	str.w	r8, [r4, #460]	; 0x1cc
    1b5c:	4479      	add	r1, pc
    1b5e:	f8d3 3090 	ldr.w	r3, [r3, #144]	; 0x90
    1b62:	4798      	blx	r3
    1b64:	4681      	mov	r9, r0
    1b66:	f8d4 019c 	ldr.w	r0, [r4, #412]	; 0x19c
    1b6a:	4641      	mov	r1, r8
    1b6c:	464b      	mov	r3, r9
    1b6e:	f44f 52c8 	mov.w	r2, #6400	; 0x1900
    1b72:	f8d0 c000 	ldr.w	ip, [r0]
    1b76:	f8dc 8094 	ldr.w	r8, [ip, #148]	; 0x94
    1b7a:	47c0      	blx	r8
    1b7c:	f8d4 019c 	ldr.w	r0, [r4, #412]	; 0x19c
    1b80:	4649      	mov	r1, r9
    1b82:	f8df 8108 	ldr.w	r8, [pc, #264]	; 1c8c <GameInit(API*, unsigned char*)+0x668>
    1b86:	6803      	ldr	r3, [r0, #0]
    1b88:	44d0      	add	r8, sl
    1b8a:	f8d3 30a0 	ldr.w	r3, [r3, #160]	; 0xa0
    1b8e:	4798      	blx	r3
    1b90:	f8d4 019c 	ldr.w	r0, [r4, #412]	; 0x19c
    1b94:	493e      	ldr	r1, [pc, #248]	; (1c90 <GameInit(API*, unsigned char*)+0x66c>)
    1b96:	4632      	mov	r2, r6
    1b98:	6803      	ldr	r3, [r0, #0]
    1b9a:	f8c4 81d0 	str.w	r8, [r4, #464]	; 0x1d0
    1b9e:	4479      	add	r1, pc
    1ba0:	f8d3 3090 	ldr.w	r3, [r3, #144]	; 0x90
    1ba4:	4798      	blx	r3
    1ba6:	4681      	mov	r9, r0
    1ba8:	f8d4 019c 	ldr.w	r0, [r4, #412]	; 0x19c
    1bac:	4641      	mov	r1, r8
    1bae:	464b      	mov	r3, r9
    1bb0:	f44f 52c8 	mov.w	r2, #6400	; 0x1900
    1bb4:	f8d0 c000 	ldr.w	ip, [r0]
    1bb8:	f8dc 8094 	ldr.w	r8, [ip, #148]	; 0x94
    1bbc:	47c0      	blx	r8
    1bbe:	f8d4 019c 	ldr.w	r0, [r4, #412]	; 0x19c
    1bc2:	4649      	mov	r1, r9
    1bc4:	f8df 80cc 	ldr.w	r8, [pc, #204]	; 1c94 <GameInit(API*, unsigned char*)+0x670>
    1bc8:	6803      	ldr	r3, [r0, #0]
    1bca:	44d0      	add	r8, sl
    1bcc:	f8d3 30a0 	ldr.w	r3, [r3, #160]	; 0xa0
    1bd0:	4798      	blx	r3
    1bd2:	f8d4 019c 	ldr.w	r0, [r4, #412]	; 0x19c
    1bd6:	4930      	ldr	r1, [pc, #192]	; (1c98 <GameInit(API*, unsigned char*)+0x674>)
    1bd8:	4632      	mov	r2, r6
    1bda:	6803      	ldr	r3, [r0, #0]
    1bdc:	f8c4 81d4 	str.w	r8, [r4, #468]	; 0x1d4
    1be0:	4479      	add	r1, pc
    1be2:	f8d3 3090 	ldr.w	r3, [r3, #144]	; 0x90
    1be6:	4798      	blx	r3
    1be8:	4681      	mov	r9, r0
    1bea:	f8d4 019c 	ldr.w	r0, [r4, #412]	; 0x19c
    1bee:	4641      	mov	r1, r8
    1bf0:	464b      	mov	r3, r9
    1bf2:	f44f 52c8 	mov.w	r2, #6400	; 0x1900
    1bf6:	f8d0 c000 	ldr.w	ip, [r0]
    1bfa:	f8dc 8094 	ldr.w	r8, [ip, #148]	; 0x94
    1bfe:	47c0      	blx	r8
    1c00:	f8d4 019c 	ldr.w	r0, [r4, #412]	; 0x19c
    1c04:	4649      	mov	r1, r9
    1c06:	f8df 8094 	ldr.w	r8, [pc, #148]	; 1c9c <GameInit(API*, unsigned char*)+0x678>
    1c0a:	6803      	ldr	r3, [r0, #0]
    1c0c:	44d0      	add	r8, sl
    1c0e:	f8d3 30a0 	ldr.w	r3, [r3, #160]	; 0xa0
    1c12:	4798      	blx	r3
    1c14:	f8d4 019c 	ldr.w	r0, [r4, #412]	; 0x19c
    1c18:	4921      	ldr	r1, [pc, #132]	; (1ca0 <GameInit(API*, unsigned char*)+0x67c>)
    1c1a:	4632      	mov	r2, r6
    1c1c:	6803      	ldr	r3, [r0, #0]
    1c1e:	f8c4 81d8 	str.w	r8, [r4, #472]	; 0x1d8
    1c22:	4479      	add	r1, pc
    1c24:	f8d3 3090 	ldr.w	r3, [r3, #144]	; 0x90
    1c28:	4798      	blx	r3
    1c2a:	4681      	mov	r9, r0
    1c2c:	f8d4 019c 	ldr.w	r0, [r4, #412]	; 0x19c
    1c30:	4641      	mov	r1, r8
    1c32:	464b      	mov	r3, r9
    1c34:	f44f 5280 	mov.w	r2, #4096	; 0x1000
    1c38:	f8d0 c000 	ldr.w	ip, [r0]
    1c3c:	f8dc 8094 	ldr.w	r8, [ip, #148]	; 0x94
    1c40:	47c0      	blx	r8
    1c42:	f8d4 019c 	ldr.w	r0, [r4, #412]	; 0x19c
    1c46:	e02d      	b.n	1ca4 <GameInit(API*, unsigned char*)+0x680>
    1c48:	7663787a 	.word	0x7663787a
    1c4c:	0001ce40 	.word	0x0001ce40
    1c50:	00000d8c 	.word	0x00000d8c
    1c54:	00000d32 	.word	0x00000d32
    1c58:	00000ca8 	.word	0x00000ca8
    1c5c:	5643585a 	.word	0x5643585a
    1c60:	00000dd4 	.word	0x00000dd4
    1c64:	00000dd2 	.word	0x00000dd2
    1c68:	00000d90 	.word	0x00000d90
    1c6c:	00000d7a 	.word	0x00000d7a
    1c70:	00073900 	.word	0x00073900
    1c74:	00000cb4 	.word	0x00000cb4
    1c78:	00000cc2 	.word	0x00000cc2
    1c7c:	000f3100 	.word	0x000f3100
    1c80:	00000c98 	.word	0x00000c98
    1c84:	0010ff40 	.word	0x0010ff40
    1c88:	00000c6c 	.word	0x00000c6c
    1c8c:	00111840 	.word	0x00111840
    1c90:	00000c3a 	.word	0x00000c3a
    1c94:	00113140 	.word	0x00113140
    1c98:	00000c0c 	.word	0x00000c0c
    1c9c:	00114a40 	.word	0x00114a40
    1ca0:	00000bde 	.word	0x00000bde
    1ca4:	4649      	mov	r1, r9
    1ca6:	f8df 8210 	ldr.w	r8, [pc, #528]	; 1eb8 <GameInit(API*, unsigned char*)+0x894>
    1caa:	6803      	ldr	r3, [r0, #0]
    1cac:	44d0      	add	r8, sl
    1cae:	f8d3 30a0 	ldr.w	r3, [r3, #160]	; 0xa0
    1cb2:	4798      	blx	r3
    1cb4:	f8d4 019c 	ldr.w	r0, [r4, #412]	; 0x19c
    1cb8:	4980      	ldr	r1, [pc, #512]	; (1ebc <GameInit(API*, unsigned char*)+0x898>)
    1cba:	4632      	mov	r2, r6
    1cbc:	6803      	ldr	r3, [r0, #0]
    1cbe:	f8c4 81dc 	str.w	r8, [r4, #476]	; 0x1dc
    1cc2:	4479      	add	r1, pc
    1cc4:	f8d3 3090 	ldr.w	r3, [r3, #144]	; 0x90
    1cc8:	4798      	blx	r3
    1cca:	4681      	mov	r9, r0
    1ccc:	f8d4 019c 	ldr.w	r0, [r4, #412]	; 0x19c
    1cd0:	4641      	mov	r1, r8
    1cd2:	464b      	mov	r3, r9
    1cd4:	f44f 5280 	mov.w	r2, #4096	; 0x1000
    1cd8:	f8d0 c000 	ldr.w	ip, [r0]
    1cdc:	f8dc 8094 	ldr.w	r8, [ip, #148]	; 0x94
    1ce0:	47c0      	blx	r8
    1ce2:	f8d4 019c 	ldr.w	r0, [r4, #412]	; 0x19c
    1ce6:	4649      	mov	r1, r9
    1ce8:	f8df 81d4 	ldr.w	r8, [pc, #468]	; 1ec0 <GameInit(API*, unsigned char*)+0x89c>
    1cec:	6803      	ldr	r3, [r0, #0]
    1cee:	44d0      	add	r8, sl
    1cf0:	f8d3 30a0 	ldr.w	r3, [r3, #160]	; 0xa0
    1cf4:	4798      	blx	r3
    1cf6:	f8d4 019c 	ldr.w	r0, [r4, #412]	; 0x19c
    1cfa:	4972      	ldr	r1, [pc, #456]	; (1ec4 <GameInit(API*, unsigned char*)+0x8a0>)
    1cfc:	4632      	mov	r2, r6
    1cfe:	6803      	ldr	r3, [r0, #0]
    1d00:	f8c4 81e0 	str.w	r8, [r4, #480]	; 0x1e0
    1d04:	4479      	add	r1, pc
    1d06:	f8d3 3090 	ldr.w	r3, [r3, #144]	; 0x90
    1d0a:	4798      	blx	r3
    1d0c:	4681      	mov	r9, r0
    1d0e:	f8d4 019c 	ldr.w	r0, [r4, #412]	; 0x19c
    1d12:	4641      	mov	r1, r8
    1d14:	464b      	mov	r3, r9
    1d16:	f44f 52c8 	mov.w	r2, #6400	; 0x1900
    1d1a:	f8d0 c000 	ldr.w	ip, [r0]
    1d1e:	f8dc 8094 	ldr.w	r8, [ip, #148]	; 0x94
    1d22:	47c0      	blx	r8
    1d24:	f8d4 019c 	ldr.w	r0, [r4, #412]	; 0x19c
    1d28:	4649      	mov	r1, r9
    1d2a:	f8df 819c 	ldr.w	r8, [pc, #412]	; 1ec8 <GameInit(API*, unsigned char*)+0x8a4>
    1d2e:	6803      	ldr	r3, [r0, #0]
    1d30:	44d0      	add	r8, sl
    1d32:	f8d3 30a0 	ldr.w	r3, [r3, #160]	; 0xa0
    1d36:	4798      	blx	r3
    1d38:	f8d4 019c 	ldr.w	r0, [r4, #412]	; 0x19c
    1d3c:	4963      	ldr	r1, [pc, #396]	; (1ecc <GameInit(API*, unsigned char*)+0x8a8>)
    1d3e:	4632      	mov	r2, r6
    1d40:	6803      	ldr	r3, [r0, #0]
    1d42:	f8c4 81e4 	str.w	r8, [r4, #484]	; 0x1e4
    1d46:	4479      	add	r1, pc
    1d48:	f8d3 3090 	ldr.w	r3, [r3, #144]	; 0x90
    1d4c:	4798      	blx	r3
    1d4e:	4681      	mov	r9, r0
    1d50:	f8d4 019c 	ldr.w	r0, [r4, #412]	; 0x19c
    1d54:	4641      	mov	r1, r8
    1d56:	464b      	mov	r3, r9
    1d58:	f44f 52c8 	mov.w	r2, #6400	; 0x1900
    1d5c:	f8d0 c000 	ldr.w	ip, [r0]
    1d60:	f8dc 8094 	ldr.w	r8, [ip, #148]	; 0x94
    1d64:	47c0      	blx	r8
    1d66:	f8d4 019c 	ldr.w	r0, [r4, #412]	; 0x19c
    1d6a:	4649      	mov	r1, r9
    1d6c:	f8df 8160 	ldr.w	r8, [pc, #352]	; 1ed0 <GameInit(API*, unsigned char*)+0x8ac>
    1d70:	6803      	ldr	r3, [r0, #0]
    1d72:	44d0      	add	r8, sl
    1d74:	f8d3 30a0 	ldr.w	r3, [r3, #160]	; 0xa0
    1d78:	4798      	blx	r3
    1d7a:	f8d4 019c 	ldr.w	r0, [r4, #412]	; 0x19c
    1d7e:	4955      	ldr	r1, [pc, #340]	; (1ed4 <GameInit(API*, unsigned char*)+0x8b0>)
    1d80:	4632      	mov	r2, r6
    1d82:	6803      	ldr	r3, [r0, #0]
    1d84:	f8c4 81e8 	str.w	r8, [r4, #488]	; 0x1e8
    1d88:	4479      	add	r1, pc
    1d8a:	f8d3 3090 	ldr.w	r3, [r3, #144]	; 0x90
    1d8e:	4798      	blx	r3
    1d90:	4681      	mov	r9, r0
    1d92:	f8d4 019c 	ldr.w	r0, [r4, #412]	; 0x19c
    1d96:	4641      	mov	r1, r8
    1d98:	464b      	mov	r3, r9
    1d9a:	f44f 52c8 	mov.w	r2, #6400	; 0x1900
    1d9e:	f8d0 c000 	ldr.w	ip, [r0]
    1da2:	f8dc 8094 	ldr.w	r8, [ip, #148]	; 0x94
    1da6:	47c0      	blx	r8
    1da8:	f8d4 019c 	ldr.w	r0, [r4, #412]	; 0x19c
    1dac:	4649      	mov	r1, r9
    1dae:	f8df 8128 	ldr.w	r8, [pc, #296]	; 1ed8 <GameInit(API*, unsigned char*)+0x8b4>
    1db2:	6803      	ldr	r3, [r0, #0]
    1db4:	44d0      	add	r8, sl
    1db6:	f8d3 30a0 	ldr.w	r3, [r3, #160]	; 0xa0
    1dba:	4798      	blx	r3
    1dbc:	f8d4 019c 	ldr.w	r0, [r4, #412]	; 0x19c
    1dc0:	4946      	ldr	r1, [pc, #280]	; (1edc <GameInit(API*, unsigned char*)+0x8b8>)
    1dc2:	4632      	mov	r2, r6
    1dc4:	6803      	ldr	r3, [r0, #0]
    1dc6:	f8c4 81ec 	str.w	r8, [r4, #492]	; 0x1ec
    1dca:	4479      	add	r1, pc
    1dcc:	f8d3 3090 	ldr.w	r3, [r3, #144]	; 0x90
    1dd0:	4798      	blx	r3
    1dd2:	4681      	mov	r9, r0
    1dd4:	f8d4 019c 	ldr.w	r0, [r4, #412]	; 0x19c
    1dd8:	4641      	mov	r1, r8
    1dda:	464b      	mov	r3, r9
    1ddc:	f44f 523d 	mov.w	r2, #12096	; 0x2f40
    1de0:	f8d0 c000 	ldr.w	ip, [r0]
    1de4:	f8dc 8094 	ldr.w	r8, [ip, #148]	; 0x94
    1de8:	47c0      	blx	r8
    1dea:	f8d4 019c 	ldr.w	r0, [r4, #412]	; 0x19c
    1dee:	4649      	mov	r1, r9
    1df0:	f8df 80ec 	ldr.w	r8, [pc, #236]	; 1ee0 <GameInit(API*, unsigned char*)+0x8bc>
    1df4:	6803      	ldr	r3, [r0, #0]
    1df6:	44d0      	add	r8, sl
    1df8:	f8d3 30a0 	ldr.w	r3, [r3, #160]	; 0xa0
    1dfc:	4798      	blx	r3
    1dfe:	f8d4 019c 	ldr.w	r0, [r4, #412]	; 0x19c
    1e02:	4938      	ldr	r1, [pc, #224]	; (1ee4 <GameInit(API*, unsigned char*)+0x8c0>)
    1e04:	4632      	mov	r2, r6
    1e06:	6803      	ldr	r3, [r0, #0]
    1e08:	f8c4 81f0 	str.w	r8, [r4, #496]	; 0x1f0
    1e0c:	4479      	add	r1, pc
    1e0e:	f8d3 3090 	ldr.w	r3, [r3, #144]	; 0x90
    1e12:	4798      	blx	r3
    1e14:	4606      	mov	r6, r0
    1e16:	f8d4 019c 	ldr.w	r0, [r4, #412]	; 0x19c
    1e1a:	4641      	mov	r1, r8
    1e1c:	4633      	mov	r3, r6
    1e1e:	f44f 523d 	mov.w	r2, #12096	; 0x2f40
    1e22:	f8d0 c000 	ldr.w	ip, [r0]
    1e26:	f8dc 8094 	ldr.w	r8, [ip, #148]	; 0x94
    1e2a:	47c0      	blx	r8
    1e2c:	f8d4 019c 	ldr.w	r0, [r4, #412]	; 0x19c
    1e30:	4631      	mov	r1, r6
    1e32:	6803      	ldr	r3, [r0, #0]
    1e34:	f8d3 30a0 	ldr.w	r3, [r3, #160]	; 0xa0
    1e38:	4798      	blx	r3
    1e3a:	4a1d      	ldr	r2, [pc, #116]	; (1eb0 <GameInit(API*, unsigned char*)+0x88c>)
    1e3c:	4b1d      	ldr	r3, [pc, #116]	; (1eb4 <GameInit(API*, unsigned char*)+0x890>)
    1e3e:	f44f 6180 	mov.w	r1, #1024	; 0x400
    1e42:	4452      	add	r2, sl
    1e44:	f884 71f4 	strb.w	r7, [r4, #500]	; 0x1f4
    1e48:	4453      	add	r3, sl
    1e4a:	f8c4 7200 	str.w	r7, [r4, #512]	; 0x200
    1e4e:	4628      	mov	r0, r5
    1e50:	f8c4 3198 	str.w	r3, [r4, #408]	; 0x198
    1e54:	e9c4 727e 	strd	r7, r2, [r4, #504]	; 0x1f8
    1e58:	682b      	ldr	r3, [r5, #0]
    1e5a:	681b      	ldr	r3, [r3, #0]
    1e5c:	4798      	blx	r3
    1e5e:	2200      	movs	r2, #0
    1e60:	f04f 33ff 	mov.w	r3, #4294967295	; 0xffffffff
    1e64:	4629      	mov	r1, r5
    1e66:	f8c4 0204 	str.w	r0, [r4, #516]	; 0x204
    1e6a:	f8c4 2220 	str.w	r2, [r4, #544]	; 0x220
    1e6e:	9804      	ldr	r0, [sp, #16]
    1e70:	f884 7218 	strb.w	r7, [r4, #536]	; 0x218
    1e74:	f8a4 721a 	strh.w	r7, [r4, #538]	; 0x21a
    1e78:	f8a4 721c 	strh.w	r7, [r4, #540]	; 0x21c
    1e7c:	e9c4 3382 	strd	r3, r3, [r4, #520]	; 0x208
    1e80:	e9c4 7784 	strd	r7, r7, [r4, #528]	; 0x210
    1e84:	f000 f84e 	bl	1f24 <NotificationsCtx::Init(API*)>
    1e88:	682b      	ldr	r3, [r5, #0]
    1e8a:	4628      	mov	r0, r5
    1e8c:	f8d3 30c0 	ldr.w	r3, [r3, #192]	; 0xc0
    1e90:	4798      	blx	r3
    1e92:	f8c4 03bc 	str.w	r0, [r4, #956]	; 0x3bc
    1e96:	4620      	mov	r0, r4
    1e98:	b011      	add	sp, #68	; 0x44
    1e9a:	e8bd 8ff0 	ldmia.w	sp!, {r4, r5, r6, r7, r8, r9, sl, fp, pc}
    1e9e:	6803      	ldr	r3, [r0, #0]
    1ea0:	4631      	mov	r1, r6
    1ea2:	4a11      	ldr	r2, [pc, #68]	; (1ee8 <GameInit(API*, unsigned char*)+0x8c4>)
    1ea4:	f8d3 30b4 	ldr.w	r3, [r3, #180]	; 0xb4
    1ea8:	447a      	add	r2, pc
    1eaa:	4798      	blx	r3
    1eac:	e59e      	b.n	19ec <GameInit(API*, unsigned char*)+0x3c8>
    1eae:	bf00      	nop
    1eb0:	001213c0 	.word	0x001213c0
    1eb4:	00125bc0 	.word	0x00125bc0
    1eb8:	00115a40 	.word	0x00115a40
    1ebc:	00000b4e 	.word	0x00000b4e
    1ec0:	00116a40 	.word	0x00116a40
    1ec4:	00000b1c 	.word	0x00000b1c
    1ec8:	00118340 	.word	0x00118340
    1ecc:	00000aea 	.word	0x00000aea
    1ed0:	00119c40 	.word	0x00119c40
    1ed4:	00000abc 	.word	0x00000abc
    1ed8:	0011b540 	.word	0x0011b540
    1edc:	00000a8e 	.word	0x00000a8e
    1ee0:	0011e480 	.word	0x0011e480
    1ee4:	00000a5c 	.word	0x00000a5c
    1ee8:	000008f0 	.word	0x000008f0

00001eec <GameUpdate(API*, void*)>:
    1eec:	4608      	mov	r0, r1
    1eee:	f7ff b943 	b.w	1178 <Context::Update()>
    1ef2:	bf00      	nop

00001ef4 <NotificationsCtx::NotificationsCtx()>:
    1ef4:	2200      	movs	r2, #0
    1ef6:	2100      	movs	r1, #0
    1ef8:	b410      	push	{r4}
    1efa:	f04f 34ff 	mov.w	r4, #4294967295	; 0xffffffff
    1efe:	6102      	str	r2, [r0, #16]
    1f00:	7602      	strb	r2, [r0, #24]
    1f02:	6044      	str	r4, [r0, #4]
    1f04:	61c4      	str	r4, [r0, #28]
    1f06:	f880 2130 	strb.w	r2, [r0, #304]	; 0x130
    1f0a:	6141      	str	r1, [r0, #20]
    1f0c:	f8c0 1134 	str.w	r1, [r0, #308]	; 0x134
    1f10:	f85d 4b04 	ldr.w	r4, [sp], #4
    1f14:	e9c0 2202 	strd	r2, r2, [r0, #8]
    1f18:	e9c0 2248 	strd	r2, r2, [r0, #288]	; 0x120
    1f1c:	e9c0 224a 	strd	r2, r2, [r0, #296]	; 0x128
    1f20:	4770      	bx	lr
    1f22:	bf00      	nop

00001f24 <NotificationsCtx::Init(API*)>:
    1f24:	6001      	str	r1, [r0, #0]
    1f26:	2001      	movs	r0, #1
    1f28:	4770      	bx	lr
    1f2a:	bf00      	nop

00001f2c <DrawString(long&, long&, char const*, unsigned long, API*, FontInfo const&, Rect const&)>:
    1f2c:	e92d 4ff8 	stmdb	sp!, {r3, r4, r5, r6, r7, r8, r9, sl, fp, lr}
    1f30:	f8dd 8030 	ldr.w	r8, [sp, #48]	; 0x30
    1f34:	e9dd 7a0a 	ldrd	r7, sl, [sp, #40]	; 0x28
    1f38:	b383      	cbz	r3, 1f9c <DrawString(long&, long&, char const*, unsigned long, API*, FontInfo const&, Rect const&)+0x70>
    1f3a:	4413      	add	r3, r2
    1f3c:	460e      	mov	r6, r1
    1f3e:	4605      	mov	r5, r0
    1f40:	1e54      	subs	r4, r2, #1
    1f42:	f103 39ff 	add.w	r9, r3, #4294967295	; 0xffffffff
    1f46:	e019      	b.n	1f7c <DrawString(long&, long&, char const*, unsigned long, API*, FontInfo const&, Rect const&)+0x50>
    1f48:	6839      	ldr	r1, [r7, #0]
    1f4a:	8832      	ldrh	r2, [r6, #0]
    1f4c:	f8d1 b078 	ldr.w	fp, [r1, #120]	; 0x78
    1f50:	8829      	ldrh	r1, [r5, #0]
    1f52:	47d8      	blx	fp
    1f54:	f8da 2000 	ldr.w	r2, [sl]
    1f58:	682b      	ldr	r3, [r5, #0]
    1f5a:	4413      	add	r3, r2
    1f5c:	602b      	str	r3, [r5, #0]
    1f5e:	f8d8 1000 	ldr.w	r1, [r8]
    1f62:	f8d8 2008 	ldr.w	r2, [r8, #8]
    1f66:	440a      	add	r2, r1
    1f68:	4293      	cmp	r3, r2
    1f6a:	dd05      	ble.n	1f78 <DrawString(long&, long&, char const*, unsigned long, API*, FontInfo const&, Rect const&)+0x4c>
    1f6c:	6029      	str	r1, [r5, #0]
    1f6e:	6833      	ldr	r3, [r6, #0]
    1f70:	f8da 2004 	ldr.w	r2, [sl, #4]
    1f74:	4413      	add	r3, r2
    1f76:	6033      	str	r3, [r6, #0]
    1f78:	454c      	cmp	r4, r9
    1f7a:	d00f      	beq.n	1f9c <DrawString(long&, long&, char const*, unsigned long, API*, FontInfo const&, Rect const&)+0x70>
    1f7c:	f814 2f01 	ldrb.w	r2, [r4, #1]!
    1f80:	4638      	mov	r0, r7
    1f82:	2a0a      	cmp	r2, #10
    1f84:	4613      	mov	r3, r2
    1f86:	d1df      	bne.n	1f48 <DrawString(long&, long&, char const*, unsigned long, API*, FontInfo const&, Rect const&)+0x1c>
    1f88:	f8d8 3000 	ldr.w	r3, [r8]
    1f8c:	454c      	cmp	r4, r9
    1f8e:	602b      	str	r3, [r5, #0]
    1f90:	6833      	ldr	r3, [r6, #0]
    1f92:	f8da 2004 	ldr.w	r2, [sl, #4]
    1f96:	4413      	add	r3, r2
    1f98:	6033      	str	r3, [r6, #0]
    1f9a:	d1ef      	bne.n	1f7c <DrawString(long&, long&, char const*, unsigned long, API*, FontInfo const&, Rect const&)+0x50>
    1f9c:	e8bd 8ff8 	ldmia.w	sp!, {r3, r4, r5, r6, r7, r8, r9, sl, fp, pc}

00001fa0 <NotificationsCtx::Render(float)>:
    1fa0:	f890 3130 	ldrb.w	r3, [r0, #304]	; 0x130
    1fa4:	2b00      	cmp	r3, #0
    1fa6:	d07a      	beq.n	209e <NotificationsCtx::Render(float)+0xfe>
    1fa8:	e92d 43f0 	stmdb	sp!, {r4, r5, r6, r7, r8, r9, lr}
    1fac:	4604      	mov	r4, r0
    1fae:	b08d      	sub	sp, #52	; 0x34
    1fb0:	6800      	ldr	r0, [r0, #0]
    1fb2:	460d      	mov	r5, r1
    1fb4:	ae06      	add	r6, sp, #24
    1fb6:	2101      	movs	r1, #1
    1fb8:	6803      	ldr	r3, [r0, #0]
    1fba:	4632      	mov	r2, r6
    1fbc:	6f1b      	ldr	r3, [r3, #112]	; 0x70
    1fbe:	4798      	blx	r3
    1fc0:	6820      	ldr	r0, [r4, #0]
    1fc2:	2101      	movs	r1, #1
    1fc4:	6803      	ldr	r3, [r0, #0]
    1fc6:	6edb      	ldr	r3, [r3, #108]	; 0x6c
    1fc8:	4798      	blx	r3
    1fca:	6820      	ldr	r0, [r4, #0]
    1fcc:	f04f 31ff 	mov.w	r1, #4294967295	; 0xffffffff
    1fd0:	6803      	ldr	r3, [r0, #0]
    1fd2:	6e9b      	ldr	r3, [r3, #104]	; 0x68
    1fd4:	4798      	blx	r3
    1fd6:	eef1 7a04 	vmov.f32	s15, #20	; 0x40a00000  5.0
    1fda:	ed94 7a4d 	vldr	s14, [r4, #308]	; 0x134
    1fde:	2137      	movs	r1, #55	; 0x37
    1fe0:	220a      	movs	r2, #10
    1fe2:	f44f 7087 	mov.w	r0, #270	; 0x10e
    1fe6:	eeb4 7ae7 	vcmpe.f32	s14, s15
    1fea:	2300      	movs	r3, #0
    1fec:	e9cd 1208 	strd	r1, r2, [sp, #32]
    1ff0:	eef1 fa10 	vmrs	APSR_nzcv, fpscr
    1ff4:	e9cd 030a 	strd	r0, r3, [sp, #40]	; 0x28
    1ff8:	d40b      	bmi.n	2012 <NotificationsCtx::Render(float)+0x72>
    1ffa:	2200      	movs	r2, #0
    1ffc:	f884 3130 	strb.w	r3, [r4, #304]	; 0x130
    2000:	e9c4 3348 	strd	r3, r3, [r4, #288]	; 0x120
    2004:	e9c4 334a 	strd	r3, r3, [r4, #296]	; 0x128
    2008:	f8c4 2134 	str.w	r2, [r4, #308]	; 0x134
    200c:	b00d      	add	sp, #52	; 0x34
    200e:	e8bd 83f0 	ldmia.w	sp!, {r4, r5, r6, r7, r8, r9, pc}
    2012:	6820      	ldr	r0, [r4, #0]
    2014:	f10d 0914 	add.w	r9, sp, #20
    2018:	9104      	str	r1, [sp, #16]
    201a:	f10d 0820 	add.w	r8, sp, #32
    201e:	6803      	ldr	r3, [r0, #0]
    2020:	af04      	add	r7, sp, #16
    2022:	9205      	str	r2, [sp, #20]
    2024:	f8d4 1120 	ldr.w	r1, [r4, #288]	; 0x120
    2028:	f8d3 30ac 	ldr.w	r3, [r3, #172]	; 0xac
    202c:	4798      	blx	r3
    202e:	f8d4 3124 	ldr.w	r3, [r4, #292]	; 0x124
    2032:	6822      	ldr	r2, [r4, #0]
    2034:	4649      	mov	r1, r9
    2036:	4283      	cmp	r3, r0
    2038:	9601      	str	r6, [sp, #4]
    203a:	f8cd 8008 	str.w	r8, [sp, #8]
    203e:	bf28      	it	cs
    2040:	4603      	movcs	r3, r0
    2042:	9200      	str	r2, [sp, #0]
    2044:	4638      	mov	r0, r7
    2046:	f8d4 2120 	ldr.w	r2, [r4, #288]	; 0x120
    204a:	f7ff ff6f 	bl	1f2c <DrawString(long&, long&, char const*, unsigned long, API*, FontInfo const&, Rect const&)>
    204e:	9b05      	ldr	r3, [sp, #20]
    2050:	9a07      	ldr	r2, [sp, #28]
    2052:	6820      	ldr	r0, [r4, #0]
    2054:	4413      	add	r3, r2
    2056:	9a08      	ldr	r2, [sp, #32]
    2058:	6801      	ldr	r1, [r0, #0]
    205a:	9305      	str	r3, [sp, #20]
    205c:	9204      	str	r2, [sp, #16]
    205e:	f8d1 30ac 	ldr.w	r3, [r1, #172]	; 0xac
    2062:	f8d4 1128 	ldr.w	r1, [r4, #296]	; 0x128
    2066:	4798      	blx	r3
    2068:	f8d4 312c 	ldr.w	r3, [r4, #300]	; 0x12c
    206c:	6822      	ldr	r2, [r4, #0]
    206e:	4649      	mov	r1, r9
    2070:	4283      	cmp	r3, r0
    2072:	f8cd 8008 	str.w	r8, [sp, #8]
    2076:	9601      	str	r6, [sp, #4]
    2078:	bf28      	it	cs
    207a:	4603      	movcs	r3, r0
    207c:	9200      	str	r2, [sp, #0]
    207e:	4638      	mov	r0, r7
    2080:	f8d4 2128 	ldr.w	r2, [r4, #296]	; 0x128
    2084:	f7ff ff52 	bl	1f2c <DrawString(long&, long&, char const*, unsigned long, API*, FontInfo const&, Rect const&)>
    2088:	edd4 7a4d 	vldr	s15, [r4, #308]	; 0x134
    208c:	ee07 5a10 	vmov	s14, r5
    2090:	ee77 7a87 	vadd.f32	s15, s15, s14
    2094:	edc4 7a4d 	vstr	s15, [r4, #308]	; 0x134
    2098:	b00d      	add	sp, #52	; 0x34
    209a:	e8bd 83f0 	ldmia.w	sp!, {r4, r5, r6, r7, r8, r9, pc}
    209e:	4770      	bx	lr

000020a0 <NotificationsCtx::FreePostRequest()>:
    20a0:	b510      	push	{r4, lr}
    20a2:	4604      	mov	r4, r0
    20a4:	6800      	ldr	r0, [r0, #0]
    20a6:	68a2      	ldr	r2, [r4, #8]
    20a8:	6803      	ldr	r3, [r0, #0]
    20aa:	f8d2 1084 	ldr.w	r1, [r2, #132]	; 0x84
    20ae:	685b      	ldr	r3, [r3, #4]
    20b0:	4798      	blx	r3
    20b2:	6820      	ldr	r0, [r4, #0]
    20b4:	68a1      	ldr	r1, [r4, #8]
    20b6:	6803      	ldr	r3, [r0, #0]
    20b8:	6a1b      	ldr	r3, [r3, #32]
    20ba:	4798      	blx	r3
    20bc:	2300      	movs	r3, #0
    20be:	60a3      	str	r3, [r4, #8]
    20c0:	bd10      	pop	{r4, pc}
    20c2:	bf00      	nop

000020c4 <NotificationsCtx::Post(char const*, char const*)>:
    20c4:	e92d 43f0 	stmdb	sp!, {r4, r5, r6, r7, r8, r9, lr}
    20c8:	6887      	ldr	r7, [r0, #8]
    20ca:	b085      	sub	sp, #20
    20cc:	b117      	cbz	r7, 20d4 <NotificationsCtx::Post(char const*, char const*)+0x10>
    20ce:	b005      	add	sp, #20
    20d0:	e8bd 83f0 	ldmia.w	sp!, {r4, r5, r6, r7, r8, r9, pc}
    20d4:	4604      	mov	r4, r0
    20d6:	6800      	ldr	r0, [r0, #0]
    20d8:	4615      	mov	r5, r2
    20da:	460e      	mov	r6, r1
    20dc:	6803      	ldr	r3, [r0, #0]
    20de:	699b      	ldr	r3, [r3, #24]
    20e0:	4798      	blx	r3
    20e2:	60a0      	str	r0, [r4, #8]
    20e4:	2800      	cmp	r0, #0
    20e6:	d0f2      	beq.n	20ce <NotificationsCtx::Post(char const*, char const*)+0xa>
    20e8:	2201      	movs	r2, #1
    20ea:	f04f 0e50 	mov.w	lr, #80	; 0x50
    20ee:	4b37      	ldr	r3, [pc, #220]	; (21cc <NotificationsCtx::Post(char const*, char const*)+0x108>)
    20f0:	7002      	strb	r2, [r0, #0]
    20f2:	6820      	ldr	r0, [r4, #0]
    20f4:	447b      	add	r3, pc
    20f6:	69e2      	ldr	r2, [r4, #28]
    20f8:	f8d0 c000 	ldr.w	ip, [r0]
    20fc:	68a1      	ldr	r1, [r4, #8]
    20fe:	e9cd e200 	strd	lr, r2, [sp]
    2102:	4a33      	ldr	r2, [pc, #204]	; (21d0 <NotificationsCtx::Post(char const*, char const*)+0x10c>)
    2104:	3101      	adds	r1, #1
    2106:	f8dc 80b4 	ldr.w	r8, [ip, #180]	; 0xb4
    210a:	447a      	add	r2, pc
    210c:	47c0      	blx	r8
    210e:	6820      	ldr	r0, [r4, #0]
    2110:	4631      	mov	r1, r6
    2112:	6803      	ldr	r3, [r0, #0]
    2114:	f8d3 30ac 	ldr.w	r3, [r3, #172]	; 0xac
    2118:	4798      	blx	r3
    211a:	6823      	ldr	r3, [r4, #0]
    211c:	9002      	str	r0, [sp, #8]
    211e:	4629      	mov	r1, r5
    2120:	681a      	ldr	r2, [r3, #0]
    2122:	4618      	mov	r0, r3
    2124:	f8d2 30ac 	ldr.w	r3, [r2, #172]	; 0xac
    2128:	4798      	blx	r3
    212a:	9b02      	ldr	r3, [sp, #8]
    212c:	68a2      	ldr	r2, [r4, #8]
    212e:	3308      	adds	r3, #8
    2130:	9003      	str	r0, [sp, #12]
    2132:	4403      	add	r3, r0
    2134:	f8c2 3088 	str.w	r3, [r2, #136]	; 0x88
    2138:	6820      	ldr	r0, [r4, #0]
    213a:	f8d4 8008 	ldr.w	r8, [r4, #8]
    213e:	6803      	ldr	r3, [r0, #0]
    2140:	f8d8 1088 	ldr.w	r1, [r8, #136]	; 0x88
    2144:	681b      	ldr	r3, [r3, #0]
    2146:	4798      	blx	r3
    2148:	f8c8 0084 	str.w	r0, [r8, #132]	; 0x84
    214c:	68a3      	ldr	r3, [r4, #8]
    214e:	463a      	mov	r2, r7
    2150:	6820      	ldr	r0, [r4, #0]
    2152:	f8d3 8084 	ldr.w	r8, [r3, #132]	; 0x84
    2156:	6807      	ldr	r7, [r0, #0]
    2158:	4641      	mov	r1, r8
    215a:	f8d3 3088 	ldr.w	r3, [r3, #136]	; 0x88
    215e:	f8d7 90a8 	ldr.w	r9, [r7, #168]	; 0xa8
    2162:	1d0f      	adds	r7, r1, #4
    2164:	47c8      	blx	r9
    2166:	6820      	ldr	r0, [r4, #0]
    2168:	4641      	mov	r1, r8
    216a:	2304      	movs	r3, #4
    216c:	aa02      	add	r2, sp, #8
    216e:	f8d0 c000 	ldr.w	ip, [r0]
    2172:	f8dc 80a4 	ldr.w	r8, [ip, #164]	; 0xa4
    2176:	47c0      	blx	r8
    2178:	9b02      	ldr	r3, [sp, #8]
    217a:	b143      	cbz	r3, 218e <NotificationsCtx::Post(char const*, char const*)+0xca>
    217c:	6820      	ldr	r0, [r4, #0]
    217e:	4632      	mov	r2, r6
    2180:	4639      	mov	r1, r7
    2182:	6806      	ldr	r6, [r0, #0]
    2184:	f8d6 60a4 	ldr.w	r6, [r6, #164]	; 0xa4
    2188:	47b0      	blx	r6
    218a:	9b02      	ldr	r3, [sp, #8]
    218c:	441f      	add	r7, r3
    218e:	6820      	ldr	r0, [r4, #0]
    2190:	2304      	movs	r3, #4
    2192:	aa03      	add	r2, sp, #12
    2194:	4639      	mov	r1, r7
    2196:	6806      	ldr	r6, [r0, #0]
    2198:	f8d6 60a4 	ldr.w	r6, [r6, #164]	; 0xa4
    219c:	47b0      	blx	r6
    219e:	9b03      	ldr	r3, [sp, #12]
    21a0:	b133      	cbz	r3, 21b0 <NotificationsCtx::Post(char const*, char const*)+0xec>
    21a2:	6820      	ldr	r0, [r4, #0]
    21a4:	462a      	mov	r2, r5
    21a6:	1d39      	adds	r1, r7, #4
    21a8:	6805      	ldr	r5, [r0, #0]
    21aa:	f8d5 50a4 	ldr.w	r5, [r5, #164]	; 0xa4
    21ae:	47a8      	blx	r5
    21b0:	6820      	ldr	r0, [r4, #0]
    21b2:	68a1      	ldr	r1, [r4, #8]
    21b4:	6803      	ldr	r3, [r0, #0]
    21b6:	69db      	ldr	r3, [r3, #28]
    21b8:	4798      	blx	r3
    21ba:	2800      	cmp	r0, #0
    21bc:	d187      	bne.n	20ce <NotificationsCtx::Post(char const*, char const*)+0xa>
    21be:	4620      	mov	r0, r4
    21c0:	f7ff ff6e 	bl	20a0 <NotificationsCtx::FreePostRequest()>
    21c4:	b005      	add	sp, #20
    21c6:	e8bd 83f0 	ldmia.w	sp!, {r4, r5, r6, r7, r8, r9, pc}
    21ca:	bf00      	nop
    21cc:	000003fc 	.word	0x000003fc
    21d0:	0000077e 	.word	0x0000077e

000021d4 <NotificationsCtx::FreeGetRequest()>:
    21d4:	b510      	push	{r4, lr}
    21d6:	4604      	mov	r4, r0
    21d8:	6800      	ldr	r0, [r0, #0]
    21da:	6803      	ldr	r3, [r0, #0]
    21dc:	68e1      	ldr	r1, [r4, #12]
    21de:	6a1b      	ldr	r3, [r3, #32]
    21e0:	4798      	blx	r3
    21e2:	2300      	movs	r3, #0
    21e4:	60e3      	str	r3, [r4, #12]
    21e6:	bd10      	pop	{r4, pc}

000021e8 <NotificationsCtx::Get()>:
    21e8:	b570      	push	{r4, r5, r6, lr}
    21ea:	4604      	mov	r4, r0
    21ec:	6800      	ldr	r0, [r0, #0]
    21ee:	b082      	sub	sp, #8
    21f0:	6803      	ldr	r3, [r0, #0]
    21f2:	699b      	ldr	r3, [r3, #24]
    21f4:	4798      	blx	r3
    21f6:	60e0      	str	r0, [r4, #12]
    21f8:	b1b0      	cbz	r0, 2228 <NotificationsCtx::Get()+0x40>
    21fa:	2200      	movs	r2, #0
    21fc:	2550      	movs	r5, #80	; 0x50
    21fe:	4b0e      	ldr	r3, [pc, #56]	; (2238 <NotificationsCtx::Get()+0x50>)
    2200:	7002      	strb	r2, [r0, #0]
    2202:	6820      	ldr	r0, [r4, #0]
    2204:	447b      	add	r3, pc
    2206:	69e6      	ldr	r6, [r4, #28]
    2208:	6802      	ldr	r2, [r0, #0]
    220a:	68e1      	ldr	r1, [r4, #12]
    220c:	e9cd 5600 	strd	r5, r6, [sp]
    2210:	f8d2 50b4 	ldr.w	r5, [r2, #180]	; 0xb4
    2214:	3101      	adds	r1, #1
    2216:	4a09      	ldr	r2, [pc, #36]	; (223c <NotificationsCtx::Get()+0x54>)
    2218:	447a      	add	r2, pc
    221a:	47a8      	blx	r5
    221c:	6820      	ldr	r0, [r4, #0]
    221e:	68e1      	ldr	r1, [r4, #12]
    2220:	6803      	ldr	r3, [r0, #0]
    2222:	69db      	ldr	r3, [r3, #28]
    2224:	4798      	blx	r3
    2226:	b108      	cbz	r0, 222c <NotificationsCtx::Get()+0x44>
    2228:	b002      	add	sp, #8
    222a:	bd70      	pop	{r4, r5, r6, pc}
    222c:	4620      	mov	r0, r4
    222e:	b002      	add	sp, #8
    2230:	e8bd 4070 	ldmia.w	sp!, {r4, r5, r6, lr}
    2234:	f7ff bfce 	b.w	21d4 <NotificationsCtx::FreeGetRequest()>
    2238:	000002ec 	.word	0x000002ec
    223c:	00000670 	.word	0x00000670

00002240 <NotificationsCtx::CheckForNewNotifications()>:
    2240:	e92d 41f0 	stmdb	sp!, {r4, r5, r6, r7, r8, lr}
    2244:	4604      	mov	r4, r0
    2246:	6800      	ldr	r0, [r0, #0]
    2248:	b090      	sub	sp, #64	; 0x40
    224a:	6803      	ldr	r3, [r0, #0]
    224c:	691b      	ldr	r3, [r3, #16]
    224e:	4798      	blx	r3
    2250:	2801      	cmp	r0, #1
    2252:	d135      	bne.n	22c0 <NotificationsCtx::CheckForNewNotifications()+0x80>
    2254:	69e3      	ldr	r3, [r4, #28]
    2256:	3301      	adds	r3, #1
    2258:	d032      	beq.n	22c0 <NotificationsCtx::CheckForNewNotifications()+0x80>
    225a:	4605      	mov	r5, r0
    225c:	6820      	ldr	r0, [r4, #0]
    225e:	6803      	ldr	r3, [r0, #0]
    2260:	f8d3 30c0 	ldr.w	r3, [r3, #192]	; 0xc0
    2264:	4798      	blx	r3
    2266:	6863      	ldr	r3, [r4, #4]
    2268:	ee07 0a90 	vmov	s15, r0
    226c:	2b00      	cmp	r3, #0
    226e:	db4e      	blt.n	230e <NotificationsCtx::CheckForNewNotifications()+0xce>
    2270:	6820      	ldr	r0, [r4, #0]
    2272:	4959      	ldr	r1, [pc, #356]	; (23d8 <NotificationsCtx::CheckForNewNotifications()+0x198>)
    2274:	6803      	ldr	r3, [r0, #0]
    2276:	4479      	add	r1, pc
    2278:	6a5b      	ldr	r3, [r3, #36]	; 0x24
    227a:	4798      	blx	r3
    227c:	6823      	ldr	r3, [r4, #0]
    227e:	f641 7241 	movw	r2, #8001	; 0x1f41
    2282:	9002      	str	r0, [sp, #8]
    2284:	6819      	ldr	r1, [r3, #0]
    2286:	4618      	mov	r0, r3
    2288:	f8ad 200c 	strh.w	r2, [sp, #12]
    228c:	aa02      	add	r2, sp, #8
    228e:	6bcb      	ldr	r3, [r1, #60]	; 0x3c
    2290:	6861      	ldr	r1, [r4, #4]
    2292:	4798      	blx	r3
    2294:	f100 030b 	add.w	r3, r0, #11
    2298:	2b01      	cmp	r3, #1
    229a:	d911      	bls.n	22c0 <NotificationsCtx::CheckForNewNotifications()+0x80>
    229c:	e9d4 3100 	ldrd	r3, r1, [r4]
    22a0:	681d      	ldr	r5, [r3, #0]
    22a2:	b180      	cbz	r0, 22c6 <NotificationsCtx::CheckForNewNotifications()+0x86>
    22a4:	300c      	adds	r0, #12
    22a6:	d00e      	beq.n	22c6 <NotificationsCtx::CheckForNewNotifications()+0x86>
    22a8:	4618      	mov	r0, r3
    22aa:	6d2a      	ldr	r2, [r5, #80]	; 0x50
    22ac:	4790      	blx	r2
    22ae:	f04f 33ff 	mov.w	r3, #4294967295	; 0xffffffff
    22b2:	6820      	ldr	r0, [r4, #0]
    22b4:	6063      	str	r3, [r4, #4]
    22b6:	6803      	ldr	r3, [r0, #0]
    22b8:	f8d3 30c0 	ldr.w	r3, [r3, #192]	; 0xc0
    22bc:	4798      	blx	r3
    22be:	6160      	str	r0, [r4, #20]
    22c0:	b010      	add	sp, #64	; 0x40
    22c2:	e8bd 81f0 	ldmia.w	sp!, {r4, r5, r6, r7, r8, pc}
    22c6:	7e22      	ldrb	r2, [r4, #24]
    22c8:	b95a      	cbnz	r2, 22e2 <NotificationsCtx::CheckForNewNotifications()+0xa2>
    22ca:	9200      	str	r2, [sp, #0]
    22cc:	4618      	mov	r0, r3
    22ce:	6b6d      	ldr	r5, [r5, #52]	; 0x34
    22d0:	2304      	movs	r3, #4
    22d2:	f104 021c 	add.w	r2, r4, #28
    22d6:	47a8      	blx	r5
    22d8:	2201      	movs	r2, #1
    22da:	6823      	ldr	r3, [r4, #0]
    22dc:	7622      	strb	r2, [r4, #24]
    22de:	6861      	ldr	r1, [r4, #4]
    22e0:	681d      	ldr	r5, [r3, #0]
    22e2:	2700      	movs	r7, #0
    22e4:	ae04      	add	r6, sp, #16
    22e6:	4618      	mov	r0, r3
    22e8:	2310      	movs	r3, #16
    22ea:	9700      	str	r7, [sp, #0]
    22ec:	4632      	mov	r2, r6
    22ee:	6bad      	ldr	r5, [r5, #56]	; 0x38
    22f0:	47a8      	blx	r5
    22f2:	2810      	cmp	r0, #16
    22f4:	4605      	mov	r5, r0
    22f6:	d02c      	beq.n	2352 <NotificationsCtx::CheckForNewNotifications()+0x112>
    22f8:	1c45      	adds	r5, r0, #1
    22fa:	d0e1      	beq.n	22c0 <NotificationsCtx::CheckForNewNotifications()+0x80>
    22fc:	e9d4 0100 	ldrd	r0, r1, [r4]
    2300:	6803      	ldr	r3, [r0, #0]
    2302:	6d1b      	ldr	r3, [r3, #80]	; 0x50
    2304:	4798      	blx	r3
    2306:	f04f 33ff 	mov.w	r3, #4294967295	; 0xffffffff
    230a:	6063      	str	r3, [r4, #4]
    230c:	e7d8      	b.n	22c0 <NotificationsCtx::CheckForNewNotifications()+0x80>
    230e:	edd4 6a05 	vldr	s13, [r4, #20]
    2312:	eeb6 7a00 	vmov.f32	s14, #96	; 0x3f000000  0.5
    2316:	ee77 7ae6 	vsub.f32	s15, s15, s13
    231a:	eef4 7ac7 	vcmpe.f32	s15, s14
    231e:	eef1 fa10 	vmrs	APSR_nzcv, fpscr
    2322:	d4cd      	bmi.n	22c0 <NotificationsCtx::CheckForNewNotifications()+0x80>
    2324:	6820      	ldr	r0, [r4, #0]
    2326:	4629      	mov	r1, r5
    2328:	6803      	ldr	r3, [r0, #0]
    232a:	6adb      	ldr	r3, [r3, #44]	; 0x2c
    232c:	4798      	blx	r3
    232e:	2800      	cmp	r0, #0
    2330:	4601      	mov	r1, r0
    2332:	6060      	str	r0, [r4, #4]
    2334:	dbc4      	blt.n	22c0 <NotificationsCtx::CheckForNewNotifications()+0x80>
    2336:	6820      	ldr	r0, [r4, #0]
    2338:	2200      	movs	r2, #0
    233a:	6803      	ldr	r3, [r0, #0]
    233c:	6b1b      	ldr	r3, [r3, #48]	; 0x30
    233e:	4798      	blx	r3
    2340:	6820      	ldr	r0, [r4, #0]
    2342:	6803      	ldr	r3, [r0, #0]
    2344:	f8d3 30c0 	ldr.w	r3, [r3, #192]	; 0xc0
    2348:	4798      	blx	r3
    234a:	2300      	movs	r3, #0
    234c:	6160      	str	r0, [r4, #20]
    234e:	7623      	strb	r3, [r4, #24]
    2350:	e78e      	b.n	2270 <NotificationsCtx::CheckForNewNotifications()+0x30>
    2352:	6820      	ldr	r0, [r4, #0]
    2354:	4921      	ldr	r1, [pc, #132]	; (23dc <NotificationsCtx::CheckForNewNotifications()+0x19c>)
    2356:	6803      	ldr	r3, [r0, #0]
    2358:	4479      	add	r1, pc
    235a:	f8d3 30b8 	ldr.w	r3, [r3, #184]	; 0xb8
    235e:	4798      	blx	r3
    2360:	4621      	mov	r1, r4
    2362:	4632      	mov	r2, r6
    2364:	2304      	movs	r3, #4
    2366:	f851 0b10 	ldr.w	r0, [r1], #16
    236a:	f8d0 c000 	ldr.w	ip, [r0]
    236e:	f8dc 80a4 	ldr.w	r8, [ip, #164]	; 0xa4
    2372:	47c0      	blx	r8
    2374:	4b1a      	ldr	r3, [pc, #104]	; (23e0 <NotificationsCtx::CheckForNewNotifications()+0x1a0>)
    2376:	f8d4 e000 	ldr.w	lr, [r4]
    237a:	f10d 0c20 	add.w	ip, sp, #32
    237e:	447b      	add	r3, pc
    2380:	f10d 0830 	add.w	r8, sp, #48	; 0x30
    2384:	cb0f      	ldmia	r3, {r0, r1, r2, r3}
    2386:	e88c 000f 	stmia.w	ip, {r0, r1, r2, r3}
    238a:	f8de 3000 	ldr.w	r3, [lr]
    238e:	4632      	mov	r2, r6
    2390:	4641      	mov	r1, r8
    2392:	4670      	mov	r0, lr
    2394:	f8d3 60a4 	ldr.w	r6, [r3, #164]	; 0xa4
    2398:	462b      	mov	r3, r5
    239a:	47b0      	blx	r6
    239c:	990c      	ldr	r1, [sp, #48]	; 0x30
    239e:	4e0d      	ldr	r6, [pc, #52]	; (23d4 <NotificationsCtx::CheckForNewNotifications()+0x194>)
    23a0:	462b      	mov	r3, r5
    23a2:	9809      	ldr	r0, [sp, #36]	; 0x24
    23a4:	4642      	mov	r2, r8
    23a6:	404e      	eors	r6, r1
    23a8:	990a      	ldr	r1, [sp, #40]	; 0x28
    23aa:	9d0e      	ldr	r5, [sp, #56]	; 0x38
    23ac:	4430      	add	r0, r6
    23ae:	960c      	str	r6, [sp, #48]	; 0x30
    23b0:	9e0d      	ldr	r6, [sp, #52]	; 0x34
    23b2:	4070      	eors	r0, r6
    23b4:	9e0b      	ldr	r6, [sp, #44]	; 0x2c
    23b6:	4401      	add	r1, r0
    23b8:	900d      	str	r0, [sp, #52]	; 0x34
    23ba:	6820      	ldr	r0, [r4, #0]
    23bc:	404d      	eors	r5, r1
    23be:	6861      	ldr	r1, [r4, #4]
    23c0:	6804      	ldr	r4, [r0, #0]
    23c2:	442e      	add	r6, r5
    23c4:	950e      	str	r5, [sp, #56]	; 0x38
    23c6:	9d0f      	ldr	r5, [sp, #60]	; 0x3c
    23c8:	9700      	str	r7, [sp, #0]
    23ca:	4075      	eors	r5, r6
    23cc:	6b64      	ldr	r4, [r4, #52]	; 0x34
    23ce:	950f      	str	r5, [sp, #60]	; 0x3c
    23d0:	47a0      	blx	r4
    23d2:	e775      	b.n	22c0 <NotificationsCtx::CheckForNewNotifications()+0x80>
    23d4:	1dd232c4 	.word	0x1dd232c4
    23d8:	0000027a 	.word	0x0000027a
    23dc:	00000554 	.word	0x00000554
    23e0:	000004fa 	.word	0x000004fa

000023e4 <NotificationsCtx::SetAuthKey(unsigned long)>:
    23e4:	61c1      	str	r1, [r0, #28]
    23e6:	f7ff bf2b 	b.w	2240 <NotificationsCtx::CheckForNewNotifications()>
    23ea:	bf00      	nop

000023ec <NotificationsCtx::Update()>:
    23ec:	b5f0      	push	{r4, r5, r6, r7, lr}
    23ee:	6883      	ldr	r3, [r0, #8]
    23f0:	b0c1      	sub	sp, #260	; 0x104
    23f2:	4604      	mov	r4, r0
    23f4:	b11b      	cbz	r3, 23fe <NotificationsCtx::Update()+0x12>
    23f6:	f893 3094 	ldrb.w	r3, [r3, #148]	; 0x94
    23fa:	2b00      	cmp	r3, #0
    23fc:	d154      	bne.n	24a8 <NotificationsCtx::Update()+0xbc>
    23fe:	68e2      	ldr	r2, [r4, #12]
    2400:	b112      	cbz	r2, 2408 <NotificationsCtx::Update()+0x1c>
    2402:	f892 3094 	ldrb.w	r3, [r2, #148]	; 0x94
    2406:	b953      	cbnz	r3, 241e <NotificationsCtx::Update()+0x32>
    2408:	4620      	mov	r0, r4
    240a:	f7ff ff19 	bl	2240 <NotificationsCtx::CheckForNewNotifications()>
    240e:	6923      	ldr	r3, [r4, #16]
    2410:	2b00      	cmp	r3, #0
    2412:	dd02      	ble.n	241a <NotificationsCtx::Update()+0x2e>
    2414:	68e3      	ldr	r3, [r4, #12]
    2416:	2b00      	cmp	r3, #0
    2418:	d049      	beq.n	24ae <NotificationsCtx::Update()+0xc2>
    241a:	b041      	add	sp, #260	; 0x104
    241c:	bdf0      	pop	{r4, r5, r6, r7, pc}
    241e:	f892 3095 	ldrb.w	r3, [r2, #149]	; 0x95
    2422:	2b00      	cmp	r3, #0
    2424:	d039      	beq.n	249a <NotificationsCtx::Update()+0xae>
    2426:	f8d2 3098 	ldr.w	r3, [r2, #152]	; 0x98
    242a:	2b00      	cmp	r3, #0
    242c:	d035      	beq.n	249a <NotificationsCtx::Update()+0xae>
    242e:	6820      	ldr	r0, [r4, #0]
    2430:	466e      	mov	r6, sp
    2432:	4625      	mov	r5, r4
    2434:	f8d2 208c 	ldr.w	r2, [r2, #140]	; 0x8c
    2438:	6807      	ldr	r7, [r0, #0]
    243a:	4631      	mov	r1, r6
    243c:	f8d7 70a4 	ldr.w	r7, [r7, #164]	; 0xa4
    2440:	47b8      	blx	r7
    2442:	f855 0b20 	ldr.w	r0, [r5], #32
    2446:	4632      	mov	r2, r6
    2448:	f44f 7380 	mov.w	r3, #256	; 0x100
    244c:	6806      	ldr	r6, [r0, #0]
    244e:	4629      	mov	r1, r5
    2450:	f8d6 60a4 	ldr.w	r6, [r6, #164]	; 0xa4
    2454:	47b0      	blx	r6
    2456:	6820      	ldr	r0, [r4, #0]
    2458:	462a      	mov	r2, r5
    245a:	2304      	movs	r3, #4
    245c:	6805      	ldr	r5, [r0, #0]
    245e:	f504 7192 	add.w	r1, r4, #292	; 0x124
    2462:	f8d5 50a4 	ldr.w	r5, [r5, #164]	; 0xa4
    2466:	47a8      	blx	r5
    2468:	f8d4 2124 	ldr.w	r2, [r4, #292]	; 0x124
    246c:	f104 0524 	add.w	r5, r4, #36	; 0x24
    2470:	6820      	ldr	r0, [r4, #0]
    2472:	2304      	movs	r3, #4
    2474:	f504 7196 	add.w	r1, r4, #300	; 0x12c
    2478:	f8c4 5120 	str.w	r5, [r4, #288]	; 0x120
    247c:	4415      	add	r5, r2
    247e:	6806      	ldr	r6, [r0, #0]
    2480:	462a      	mov	r2, r5
    2482:	3504      	adds	r5, #4
    2484:	f8d6 60a4 	ldr.w	r6, [r6, #164]	; 0xa4
    2488:	47b0      	blx	r6
    248a:	2201      	movs	r2, #1
    248c:	2300      	movs	r3, #0
    248e:	f8c4 5128 	str.w	r5, [r4, #296]	; 0x128
    2492:	f884 2130 	strb.w	r2, [r4, #304]	; 0x130
    2496:	f8c4 3134 	str.w	r3, [r4, #308]	; 0x134
    249a:	4620      	mov	r0, r4
    249c:	f7ff fe9a 	bl	21d4 <NotificationsCtx::FreeGetRequest()>
    24a0:	6923      	ldr	r3, [r4, #16]
    24a2:	3b01      	subs	r3, #1
    24a4:	6123      	str	r3, [r4, #16]
    24a6:	e7af      	b.n	2408 <NotificationsCtx::Update()+0x1c>
    24a8:	f7ff fdfa 	bl	20a0 <NotificationsCtx::FreePostRequest()>
    24ac:	e7a7      	b.n	23fe <NotificationsCtx::Update()+0x12>
    24ae:	4620      	mov	r0, r4
    24b0:	f7ff fe9a 	bl	21e8 <NotificationsCtx::Get()>
    24b4:	b041      	add	sp, #260	; 0x104
    24b6:	bdf0      	pop	{r4, r5, r6, r7, pc}
